ARM GAS  /var/folders/yw/6_x9gyn52jjg4jtn_wsryx_80000gp/T//ccNVG2zx.s 			page 1


   1              		.cpu cortex-m7
   2              		.arch armv7e-m
   3              		.fpu fpv5-d16
   4              		.eabi_attribute 28, 1
   5              		.eabi_attribute 20, 1
   6              		.eabi_attribute 21, 1
   7              		.eabi_attribute 23, 3
   8              		.eabi_attribute 24, 1
   9              		.eabi_attribute 25, 1
  10              		.eabi_attribute 26, 1
  11              		.eabi_attribute 30, 2
  12              		.eabi_attribute 34, 1
  13              		.eabi_attribute 18, 4
  14              		.file	"adsrWithPots.cpp"
  15              		.text
  16              	.Ltext0:
  17              		.cfi_sections	.debug_frame
  18              		.section	.text._ZN7daisysp4AdsrD2Ev,"axG",%progbits,_ZN7daisysp4AdsrD5Ev,comdat
  19              		.align	1
  20              		.p2align 2,,3
  21              		.weak	_ZN7daisysp4AdsrD2Ev
  22              		.syntax unified
  23              		.thumb
  24              		.thumb_func
  26              	_ZN7daisysp4AdsrD2Ev:
  27              	.LVL0:
  28              	.LFB562:
  29              		.file 1 "../../../DaisySP/Source/Control/adsr.h"
   1:../../../DaisySP/Source/Control/adsr.h **** #pragma once
   2:../../../DaisySP/Source/Control/adsr.h **** #ifndef DSY_ADSR_H
   3:../../../DaisySP/Source/Control/adsr.h **** #define DSY_ADSR_H
   4:../../../DaisySP/Source/Control/adsr.h **** 
   5:../../../DaisySP/Source/Control/adsr.h **** #include <stdint.h>
   6:../../../DaisySP/Source/Control/adsr.h **** #ifdef __cplusplus
   7:../../../DaisySP/Source/Control/adsr.h **** 
   8:../../../DaisySP/Source/Control/adsr.h **** namespace daisysp
   9:../../../DaisySP/Source/Control/adsr.h **** {
  10:../../../DaisySP/Source/Control/adsr.h **** /** Distinct stages that the phase of the envelope can be located in.
  11:../../../DaisySP/Source/Control/adsr.h **** - IDLE   = located at phase location 0, and not currently running
  12:../../../DaisySP/Source/Control/adsr.h **** - ATTACK  = First segment of envelope where phase moves from 0 to 1
  13:../../../DaisySP/Source/Control/adsr.h **** - DECAY   = Second segment of envelope where phase moves from 1 to SUSTAIN value
  14:../../../DaisySP/Source/Control/adsr.h **** - RELEASE =     Fourth segment of envelop where phase moves from SUSTAIN to 0
  15:../../../DaisySP/Source/Control/adsr.h **** */
  16:../../../DaisySP/Source/Control/adsr.h **** enum
  17:../../../DaisySP/Source/Control/adsr.h **** {
  18:../../../DaisySP/Source/Control/adsr.h ****     ADSR_SEG_IDLE    = 0,
  19:../../../DaisySP/Source/Control/adsr.h ****     ADSR_SEG_ATTACK  = 1,
  20:../../../DaisySP/Source/Control/adsr.h ****     ADSR_SEG_DECAY   = 2,
  21:../../../DaisySP/Source/Control/adsr.h ****     ADSR_SEG_RELEASE = 4
  22:../../../DaisySP/Source/Control/adsr.h **** };
  23:../../../DaisySP/Source/Control/adsr.h **** 
  24:../../../DaisySP/Source/Control/adsr.h **** 
  25:../../../DaisySP/Source/Control/adsr.h **** /** adsr envelope module
  26:../../../DaisySP/Source/Control/adsr.h **** 
  27:../../../DaisySP/Source/Control/adsr.h **** Original author(s) : Paul Batchelor
  28:../../../DaisySP/Source/Control/adsr.h **** 
  29:../../../DaisySP/Source/Control/adsr.h **** Ported from Soundpipe by Ben Sergentanis, May 2020
ARM GAS  /var/folders/yw/6_x9gyn52jjg4jtn_wsryx_80000gp/T//ccNVG2zx.s 			page 2


  30:../../../DaisySP/Source/Control/adsr.h ****  
  31:../../../DaisySP/Source/Control/adsr.h **** Remake by Steffan DIedrichsen, May 2021
  32:../../../DaisySP/Source/Control/adsr.h **** */
  33:../../../DaisySP/Source/Control/adsr.h **** class Adsr
  34:../../../DaisySP/Source/Control/adsr.h **** {
  35:../../../DaisySP/Source/Control/adsr.h ****   public:
  36:../../../DaisySP/Source/Control/adsr.h ****     Adsr() {}
  37:../../../DaisySP/Source/Control/adsr.h ****     ~Adsr() {}
  30              		.loc 1 37 5 view -0
  31              		.cfi_startproc
  32              		@ args = 0, pretend = 0, frame = 0
  33              		@ frame_needed = 0, uses_anonymous_args = 0
  34              		@ link register save eliminated.
  35              		.loc 1 37 14 is_stmt 0 view .LVU1
  36 0000 7047     		bx	lr
  37              		.cfi_endproc
  38              	.LFE562:
  40              		.weak	_ZN7daisysp4AdsrD1Ev
  41              		.thumb_set _ZN7daisysp4AdsrD1Ev,_ZN7daisysp4AdsrD2Ev
  42 0002 00BF     		.section	.text._ZN7daisysp10OscillatorD2Ev,"axG",%progbits,_ZN7daisysp10OscillatorD5Ev,comdat
  43              		.align	1
  44              		.p2align 2,,3
  45              		.weak	_ZN7daisysp10OscillatorD2Ev
  46              		.syntax unified
  47              		.thumb
  48              		.thumb_func
  50              	_ZN7daisysp10OscillatorD2Ev:
  51              	.LVL1:
  52              	.LFB2831:
  53              		.file 2 "../../../DaisySP/Source/Synthesis/oscillator.h"
   1:../../../DaisySP/Source/Synthesis/oscillator.h **** #pragma once
   2:../../../DaisySP/Source/Synthesis/oscillator.h **** #ifndef DSY_OSCILLATOR_H
   3:../../../DaisySP/Source/Synthesis/oscillator.h **** #define DSY_OSCILLATOR_H
   4:../../../DaisySP/Source/Synthesis/oscillator.h **** #include <stdint.h>
   5:../../../DaisySP/Source/Synthesis/oscillator.h **** #include "Utility/dsp.h"
   6:../../../DaisySP/Source/Synthesis/oscillator.h **** #ifdef __cplusplus
   7:../../../DaisySP/Source/Synthesis/oscillator.h **** 
   8:../../../DaisySP/Source/Synthesis/oscillator.h **** namespace daisysp
   9:../../../DaisySP/Source/Synthesis/oscillator.h **** {
  10:../../../DaisySP/Source/Synthesis/oscillator.h **** /** Synthesis of several waveforms, including polyBLEP bandlimited waveforms.
  11:../../../DaisySP/Source/Synthesis/oscillator.h **** */
  12:../../../DaisySP/Source/Synthesis/oscillator.h **** class Oscillator
  13:../../../DaisySP/Source/Synthesis/oscillator.h **** {
  14:../../../DaisySP/Source/Synthesis/oscillator.h ****   public:
  15:../../../DaisySP/Source/Synthesis/oscillator.h ****     Oscillator() {}
  16:../../../DaisySP/Source/Synthesis/oscillator.h ****     ~Oscillator() {}
  54              		.loc 2 16 5 is_stmt 1 view -0
  55              		.cfi_startproc
  56              		@ args = 0, pretend = 0, frame = 0
  57              		@ frame_needed = 0, uses_anonymous_args = 0
  58              		@ link register save eliminated.
  59              		.loc 2 16 20 is_stmt 0 view .LVU3
  60 0000 7047     		bx	lr
  61              		.cfi_endproc
  62              	.LFE2831:
  64              		.weak	_ZN7daisysp10OscillatorD1Ev
  65              		.thumb_set _ZN7daisysp10OscillatorD1Ev,_ZN7daisysp10OscillatorD2Ev
ARM GAS  /var/folders/yw/6_x9gyn52jjg4jtn_wsryx_80000gp/T//ccNVG2zx.s 			page 3


  66 0002 00BF     		.section	.text._ZN7daisysp5MetroD2Ev,"axG",%progbits,_ZN7daisysp5MetroD5Ev,comdat
  67              		.align	1
  68              		.p2align 2,,3
  69              		.weak	_ZN7daisysp5MetroD2Ev
  70              		.syntax unified
  71              		.thumb
  72              		.thumb_func
  74              	_ZN7daisysp5MetroD2Ev:
  75              	.LVL2:
  76              	.LFB3615:
  77              		.file 3 "../../../DaisySP/Source/Utility/metro.h"
   1:../../../DaisySP/Source/Utility/metro.h **** #pragma once
   2:../../../DaisySP/Source/Utility/metro.h **** #ifndef DSY_METRO_H
   3:../../../DaisySP/Source/Utility/metro.h **** #define DSY_METRO_H
   4:../../../DaisySP/Source/Utility/metro.h **** #include <stdint.h>
   5:../../../DaisySP/Source/Utility/metro.h **** #ifdef __cplusplus
   6:../../../DaisySP/Source/Utility/metro.h **** 
   7:../../../DaisySP/Source/Utility/metro.h **** namespace daisysp
   8:../../../DaisySP/Source/Utility/metro.h **** {
   9:../../../DaisySP/Source/Utility/metro.h **** /** Creates a clock signal at a specific frequency.
  10:../../../DaisySP/Source/Utility/metro.h **** */
  11:../../../DaisySP/Source/Utility/metro.h **** class Metro
  12:../../../DaisySP/Source/Utility/metro.h **** {
  13:../../../DaisySP/Source/Utility/metro.h ****   public:
  14:../../../DaisySP/Source/Utility/metro.h ****     Metro() {}
  15:../../../DaisySP/Source/Utility/metro.h ****     ~Metro() {}
  78              		.loc 3 15 5 is_stmt 1 view -0
  79              		.cfi_startproc
  80              		@ args = 0, pretend = 0, frame = 0
  81              		@ frame_needed = 0, uses_anonymous_args = 0
  82              		@ link register save eliminated.
  83              		.loc 3 15 15 is_stmt 0 view .LVU5
  84 0000 7047     		bx	lr
  85              		.cfi_endproc
  86              	.LFE3615:
  88              		.weak	_ZN7daisysp5MetroD1Ev
  89              		.thumb_set _ZN7daisysp5MetroD1Ev,_ZN7daisysp5MetroD2Ev
  90 0002 00BF     		.section	.text._ZN5daisy9DaisySeedD2Ev,"axG",%progbits,_ZN5daisy9DaisySeedD5Ev,comdat
  91              		.align	1
  92              		.p2align 2,,3
  93              		.weak	_ZN5daisy9DaisySeedD2Ev
  94              		.syntax unified
  95              		.thumb
  96              		.thumb_func
  98              	_ZN5daisy9DaisySeedD2Ev:
  99              	.LVL3:
 100              	.LFB4784:
 101              		.file 4 "../../../libDaisy/src/daisy_seed.h"
   1:../../../libDaisy/src/daisy_seed.h **** #pragma once
   2:../../../libDaisy/src/daisy_seed.h **** #ifndef DSY_SEED_H
   3:../../../libDaisy/src/daisy_seed.h **** #define DSY_SEED_H
   4:../../../libDaisy/src/daisy_seed.h **** 
   5:../../../libDaisy/src/daisy_seed.h **** #include "daisy.h"
   6:../../../libDaisy/src/daisy_seed.h **** 
   7:../../../libDaisy/src/daisy_seed.h **** //Uncomment this out if you're still using the rev2 hardware
   8:../../../libDaisy/src/daisy_seed.h **** //#define SEED_REV2
   9:../../../libDaisy/src/daisy_seed.h **** 
ARM GAS  /var/folders/yw/6_x9gyn52jjg4jtn_wsryx_80000gp/T//ccNVG2zx.s 			page 4


  10:../../../libDaisy/src/daisy_seed.h **** namespace daisy
  11:../../../libDaisy/src/daisy_seed.h **** {
  12:../../../libDaisy/src/daisy_seed.h **** /**
  13:../../../libDaisy/src/daisy_seed.h ****    @brief This is the higher-level interface for the Daisy board. \n 
  14:../../../libDaisy/src/daisy_seed.h ****     All basic peripheral configuration/initialization is setup here. \n
  15:../../../libDaisy/src/daisy_seed.h **** 
  16:../../../libDaisy/src/daisy_seed.h ****    @ingroup boards
  17:../../../libDaisy/src/daisy_seed.h **** */
  18:../../../libDaisy/src/daisy_seed.h **** class DaisySeed
  19:../../../libDaisy/src/daisy_seed.h **** {
  20:../../../libDaisy/src/daisy_seed.h ****   public:
  21:../../../libDaisy/src/daisy_seed.h ****     DaisySeed() {}
  22:../../../libDaisy/src/daisy_seed.h ****     ~DaisySeed() {}
 102              		.loc 4 22 5 is_stmt 1 view -0
 103              		.cfi_startproc
 104              		@ args = 0, pretend = 0, frame = 0
 105              		@ frame_needed = 0, uses_anonymous_args = 0
 106              		@ link register save eliminated.
 107              	.LBB103:
 108              	.LBI103:
 109              		.file 5 "../../../libDaisy/src/sys/system.h"
   1:../../../libDaisy/src/sys/system.h **** #ifndef DSY_SYSTEM_H
   2:../../../libDaisy/src/sys/system.h **** #define DSY_SYSTEM_H
   3:../../../libDaisy/src/sys/system.h **** 
   4:../../../libDaisy/src/sys/system.h **** #ifndef UNIT_TEST // for unit tests, a dummy implementation is provided below
   5:../../../libDaisy/src/sys/system.h **** 
   6:../../../libDaisy/src/sys/system.h **** #include <cstdint>
   7:../../../libDaisy/src/sys/system.h **** #include "per/tim.h"
   8:../../../libDaisy/src/sys/system.h **** 
   9:../../../libDaisy/src/sys/system.h **** namespace daisy
  10:../../../libDaisy/src/sys/system.h **** {
  11:../../../libDaisy/src/sys/system.h **** /** A handle for interacting with the Core System. 
  12:../../../libDaisy/src/sys/system.h ****  ** This includes the Clock tree, MPU, global DMA initialization,
  13:../../../libDaisy/src/sys/system.h ****  ** cache handling, and any other necessary global initiailzation
  14:../../../libDaisy/src/sys/system.h ****  **
  15:../../../libDaisy/src/sys/system.h ****  ** @author shensley
  16:../../../libDaisy/src/sys/system.h ****  ** @ingroup system
  17:../../../libDaisy/src/sys/system.h ****  */
  18:../../../libDaisy/src/sys/system.h **** class System
  19:../../../libDaisy/src/sys/system.h **** {
  20:../../../libDaisy/src/sys/system.h ****   public:
  21:../../../libDaisy/src/sys/system.h ****     /** Contains settings for initializing the System */
  22:../../../libDaisy/src/sys/system.h ****     struct Config
  23:../../../libDaisy/src/sys/system.h ****     {
  24:../../../libDaisy/src/sys/system.h ****         /** Specifies the system clock frequency that feeds APB/AHB clocks, etc. */
  25:../../../libDaisy/src/sys/system.h ****         enum class SysClkFreq
  26:../../../libDaisy/src/sys/system.h ****         {
  27:../../../libDaisy/src/sys/system.h ****             FREQ_400MHZ,
  28:../../../libDaisy/src/sys/system.h ****             FREQ_480MHZ,
  29:../../../libDaisy/src/sys/system.h ****         };
  30:../../../libDaisy/src/sys/system.h **** 
  31:../../../libDaisy/src/sys/system.h ****         /** Method to call on the struct to set to defaults
  32:../../../libDaisy/src/sys/system.h ****          ** CPU Freq set to 400MHz
  33:../../../libDaisy/src/sys/system.h ****          ** Cache Enabled 
  34:../../../libDaisy/src/sys/system.h ****          ** */
  35:../../../libDaisy/src/sys/system.h ****         void Defaults()
  36:../../../libDaisy/src/sys/system.h ****         {
ARM GAS  /var/folders/yw/6_x9gyn52jjg4jtn_wsryx_80000gp/T//ccNVG2zx.s 			page 5


  37:../../../libDaisy/src/sys/system.h ****             cpu_freq    = SysClkFreq::FREQ_400MHZ;
  38:../../../libDaisy/src/sys/system.h ****             use_dcache  = true;
  39:../../../libDaisy/src/sys/system.h ****             use_icache  = true;
  40:../../../libDaisy/src/sys/system.h ****             skip_clocks = false;
  41:../../../libDaisy/src/sys/system.h ****         }
  42:../../../libDaisy/src/sys/system.h **** 
  43:../../../libDaisy/src/sys/system.h ****         /** Method to call on the struct to set to boost mode:
  44:../../../libDaisy/src/sys/system.h ****          ** CPU Freq set to 480MHz
  45:../../../libDaisy/src/sys/system.h ****          ** Cache Enabled 
  46:../../../libDaisy/src/sys/system.h ****          ** */
  47:../../../libDaisy/src/sys/system.h ****         void Boost()
  48:../../../libDaisy/src/sys/system.h ****         {
  49:../../../libDaisy/src/sys/system.h ****             cpu_freq    = SysClkFreq::FREQ_480MHZ;
  50:../../../libDaisy/src/sys/system.h ****             use_dcache  = true;
  51:../../../libDaisy/src/sys/system.h ****             use_icache  = true;
  52:../../../libDaisy/src/sys/system.h ****             skip_clocks = false;
  53:../../../libDaisy/src/sys/system.h ****         }
  54:../../../libDaisy/src/sys/system.h **** 
  55:../../../libDaisy/src/sys/system.h ****         SysClkFreq cpu_freq;
  56:../../../libDaisy/src/sys/system.h ****         bool       use_dcache;
  57:../../../libDaisy/src/sys/system.h ****         bool       use_icache;
  58:../../../libDaisy/src/sys/system.h ****         bool       skip_clocks;
  59:../../../libDaisy/src/sys/system.h ****     };
  60:../../../libDaisy/src/sys/system.h **** 
  61:../../../libDaisy/src/sys/system.h ****     /** Describes the different regions of memory available to the Daisy
  62:../../../libDaisy/src/sys/system.h ****      * 
  63:../../../libDaisy/src/sys/system.h ****      */
  64:../../../libDaisy/src/sys/system.h ****     enum MemoryRegion
  65:../../../libDaisy/src/sys/system.h ****     {
  66:../../../libDaisy/src/sys/system.h ****         INTERNAL_FLASH = 0,
  67:../../../libDaisy/src/sys/system.h ****         ITCMRAM,
  68:../../../libDaisy/src/sys/system.h ****         DTCMRAM,
  69:../../../libDaisy/src/sys/system.h ****         SRAM_D1,
  70:../../../libDaisy/src/sys/system.h ****         SRAM_D2,
  71:../../../libDaisy/src/sys/system.h ****         SRAM_D3,
  72:../../../libDaisy/src/sys/system.h ****         SDRAM,
  73:../../../libDaisy/src/sys/system.h ****         QSPI,
  74:../../../libDaisy/src/sys/system.h ****         INVALID_ADDRESS,
  75:../../../libDaisy/src/sys/system.h ****     };
  76:../../../libDaisy/src/sys/system.h **** 
  77:../../../libDaisy/src/sys/system.h ****     System() {}
  78:../../../libDaisy/src/sys/system.h ****     ~System() {}
 110              		.loc 5 78 5 view .LVU7
 111              		.loc 5 78 5 is_stmt 0 view .LVU8
 112              	.LBE103:
 113              	.LBB104:
 114              	.LBI104:
 115              		.file 6 "../../../libDaisy/src/hid/usb.h"
   1:../../../libDaisy/src/hid/usb.h **** #pragma once
   2:../../../libDaisy/src/hid/usb.h **** #ifndef DSY_HID_USB_H
   3:../../../libDaisy/src/hid/usb.h **** #define DSY_HID_USB_H
   4:../../../libDaisy/src/hid/usb.h **** #include <stdint.h>
   5:../../../libDaisy/src/hid/usb.h **** #include <stdlib.h>
   6:../../../libDaisy/src/hid/usb.h **** 
   7:../../../libDaisy/src/hid/usb.h **** namespace daisy
   8:../../../libDaisy/src/hid/usb.h **** /** @addtogroup human_interface
   9:../../../libDaisy/src/hid/usb.h ****     @{
ARM GAS  /var/folders/yw/6_x9gyn52jjg4jtn_wsryx_80000gp/T//ccNVG2zx.s 			page 6


  10:../../../libDaisy/src/hid/usb.h **** */
  11:../../../libDaisy/src/hid/usb.h **** 
  12:../../../libDaisy/src/hid/usb.h **** {
  13:../../../libDaisy/src/hid/usb.h **** /** 
  14:../../../libDaisy/src/hid/usb.h ****     @brief Interface for initializing and using the USB Peripherals on the daisy
  15:../../../libDaisy/src/hid/usb.h ****     @author Stephen Hensley
  16:../../../libDaisy/src/hid/usb.h ****     @date December 2019
  17:../../../libDaisy/src/hid/usb.h **** */
  18:../../../libDaisy/src/hid/usb.h **** class UsbHandle
  19:../../../libDaisy/src/hid/usb.h **** {
  20:../../../libDaisy/src/hid/usb.h ****   public:
  21:../../../libDaisy/src/hid/usb.h ****     /** Return values for USBHandle Functions */
  22:../../../libDaisy/src/hid/usb.h ****     enum class Result
  23:../../../libDaisy/src/hid/usb.h ****     {
  24:../../../libDaisy/src/hid/usb.h ****         OK,
  25:../../../libDaisy/src/hid/usb.h ****         ERR,
  26:../../../libDaisy/src/hid/usb.h ****     };
  27:../../../libDaisy/src/hid/usb.h **** 
  28:../../../libDaisy/src/hid/usb.h ****     /** Specified which of the two USB Peripherals to initialize. */
  29:../../../libDaisy/src/hid/usb.h ****     enum UsbPeriph
  30:../../../libDaisy/src/hid/usb.h ****     {
  31:../../../libDaisy/src/hid/usb.h ****         FS_INTERNAL, /**< Internal pin */
  32:../../../libDaisy/src/hid/usb.h ****         FS_EXTERNAL, /**< FS External D+ pin is Pin 38 (GPIO32). FS External D- pin is Pin 37 (GPIO
  33:../../../libDaisy/src/hid/usb.h ****         FS_BOTH,     /**< Both */
  34:../../../libDaisy/src/hid/usb.h ****     };
  35:../../../libDaisy/src/hid/usb.h **** 
  36:../../../libDaisy/src/hid/usb.h **** 
  37:../../../libDaisy/src/hid/usb.h ****     /** Function called upon reception of a buffer */
  38:../../../libDaisy/src/hid/usb.h ****     typedef void (*ReceiveCallback)(uint8_t* buff, uint32_t* len);
  39:../../../libDaisy/src/hid/usb.h **** 
  40:../../../libDaisy/src/hid/usb.h ****     UsbHandle() {}
  41:../../../libDaisy/src/hid/usb.h **** 
  42:../../../libDaisy/src/hid/usb.h ****     ~UsbHandle() {}
 116              		.loc 6 42 5 is_stmt 1 view .LVU9
 117              		.loc 6 42 5 is_stmt 0 view .LVU10
 118              	.LBE104:
 119              	.LBB105:
 120              	.LBI105:
 121              		.file 7 "../../../libDaisy/src/per/adc.h"
   1:../../../libDaisy/src/per/adc.h **** #pragma once
   2:../../../libDaisy/src/per/adc.h **** #ifndef DSY_ADC_H
   3:../../../libDaisy/src/per/adc.h **** #define DSY_ADC_H /**< Macro */
   4:../../../libDaisy/src/per/adc.h **** #include <stdint.h>
   5:../../../libDaisy/src/per/adc.h **** #include <stdlib.h>
   6:../../../libDaisy/src/per/adc.h **** #include "daisy_core.h"
   7:../../../libDaisy/src/per/adc.h **** #include "per/gpio.h"
   8:../../../libDaisy/src/per/adc.h **** 
   9:../../../libDaisy/src/per/adc.h **** #define DSY_ADC_MAX_CHANNELS 16 /**< Maximum number of ADC channels */
  10:../../../libDaisy/src/per/adc.h **** 
  11:../../../libDaisy/src/per/adc.h **** namespace daisy
  12:../../../libDaisy/src/per/adc.h **** {
  13:../../../libDaisy/src/per/adc.h **** /** @addtogroup per_analog
  14:../../../libDaisy/src/per/adc.h ****     @{
  15:../../../libDaisy/src/per/adc.h **** */
  16:../../../libDaisy/src/per/adc.h **** 
  17:../../../libDaisy/src/per/adc.h **** /* While there may not be many configuration options here,
  18:../../../libDaisy/src/per/adc.h **** using a struct like this allows us to add more configuration
ARM GAS  /var/folders/yw/6_x9gyn52jjg4jtn_wsryx_80000gp/T//ccNVG2zx.s 			page 7


  19:../../../libDaisy/src/per/adc.h **** later without breaking existing functionality.
  20:../../../libDaisy/src/per/adc.h **** */
  21:../../../libDaisy/src/per/adc.h **** 
  22:../../../libDaisy/src/per/adc.h **** /** @brief   Configuration Structure for an ADC Channel 
  23:../../../libDaisy/src/per/adc.h ****  *  @details This can be used to configure a a single input, 
  24:../../../libDaisy/src/per/adc.h ****  *           or a multiplexed input, allowing up to 8 inputs on 
  25:../../../libDaisy/src/per/adc.h ****  *           one channel.
  26:../../../libDaisy/src/per/adc.h ****  *  @note    Sharing data lines to multiple muxes _is_ possible, but
  27:../../../libDaisy/src/per/adc.h ****  *           each channel sharing data lines must be set to the maximum
  28:../../../libDaisy/src/per/adc.h ****  *           number of channels, even if some multiplexers have fewer
  29:../../../libDaisy/src/per/adc.h ****  *           inputs connected.
  30:../../../libDaisy/src/per/adc.h **** */
  31:../../../libDaisy/src/per/adc.h **** struct AdcChannelConfig
  32:../../../libDaisy/src/per/adc.h **** {
  33:../../../libDaisy/src/per/adc.h ****     /** Which pin to use for multiplexing */
  34:../../../libDaisy/src/per/adc.h ****     enum MuxPin
  35:../../../libDaisy/src/per/adc.h ****     {
  36:../../../libDaisy/src/per/adc.h ****         MUX_SEL_0,    /**< & */
  37:../../../libDaisy/src/per/adc.h ****         MUX_SEL_1,    /**< & */
  38:../../../libDaisy/src/per/adc.h ****         MUX_SEL_2,    /**< & */
  39:../../../libDaisy/src/per/adc.h ****         MUX_SEL_LAST, /**< & */
  40:../../../libDaisy/src/per/adc.h ****     };
  41:../../../libDaisy/src/per/adc.h **** 
  42:../../../libDaisy/src/per/adc.h ****     /** Initializes a single ADC pin as an ADC. 
  43:../../../libDaisy/src/per/adc.h ****     \param pin Pin to init.
  44:../../../libDaisy/src/per/adc.h ****      */
  45:../../../libDaisy/src/per/adc.h ****     void InitSingle(dsy_gpio_pin pin);
  46:../../../libDaisy/src/per/adc.h **** 
  47:../../../libDaisy/src/per/adc.h ****     /** 
  48:../../../libDaisy/src/per/adc.h ****     Initializes a single ADC pin as a Multiplexed ADC.
  49:../../../libDaisy/src/per/adc.h ****     Requires a CD405X Multiplexer connected to the pin.
  50:../../../libDaisy/src/per/adc.h ****     You only need to supply the mux pins that are required,
  51:../../../libDaisy/src/per/adc.h ****     e.g. a 4052 mux would only require mux_0 and mux_1.
  52:../../../libDaisy/src/per/adc.h ****     Internal Callbacks handle the pin addressing.
  53:../../../libDaisy/src/per/adc.h ****     \param mux_channels must be 1-8
  54:../../../libDaisy/src/per/adc.h ****     \param mux_0 First mux pin
  55:../../../libDaisy/src/per/adc.h ****     \param mux_1 Second mux pin
  56:../../../libDaisy/src/per/adc.h ****     \param mux_2 Third mux pin
  57:../../../libDaisy/src/per/adc.h ****     \param adc_pin &
  58:../../../libDaisy/src/per/adc.h ****     */
  59:../../../libDaisy/src/per/adc.h ****     void InitMux(dsy_gpio_pin adc_pin,
  60:../../../libDaisy/src/per/adc.h ****                  size_t       mux_channels,
  61:../../../libDaisy/src/per/adc.h ****                  dsy_gpio_pin mux_0,
  62:../../../libDaisy/src/per/adc.h ****                  dsy_gpio_pin mux_1 = {DSY_GPIOX, 0},
  63:../../../libDaisy/src/per/adc.h ****                  dsy_gpio_pin mux_2 = {DSY_GPIOX, 0});
  64:../../../libDaisy/src/per/adc.h **** 
  65:../../../libDaisy/src/per/adc.h ****     dsy_gpio pin_;                   /**< & */
  66:../../../libDaisy/src/per/adc.h ****     dsy_gpio mux_pin_[MUX_SEL_LAST]; /**< & */
  67:../../../libDaisy/src/per/adc.h ****     uint8_t  mux_channels_;          /**< & */
  68:../../../libDaisy/src/per/adc.h **** };
  69:../../../libDaisy/src/per/adc.h **** 
  70:../../../libDaisy/src/per/adc.h **** /**
  71:../../../libDaisy/src/per/adc.h ****    @brief Handler for analog to digital conversion
  72:../../../libDaisy/src/per/adc.h **** */
  73:../../../libDaisy/src/per/adc.h **** class AdcHandle
  74:../../../libDaisy/src/per/adc.h **** {
  75:../../../libDaisy/src/per/adc.h ****   public:
ARM GAS  /var/folders/yw/6_x9gyn52jjg4jtn_wsryx_80000gp/T//ccNVG2zx.s 			page 8


  76:../../../libDaisy/src/per/adc.h ****     /** Supported oversampling amounts */
  77:../../../libDaisy/src/per/adc.h ****     enum OverSampling
  78:../../../libDaisy/src/per/adc.h ****     {
  79:../../../libDaisy/src/per/adc.h ****         OVS_NONE, /**< & */
  80:../../../libDaisy/src/per/adc.h ****         OVS_4,    /**< & */
  81:../../../libDaisy/src/per/adc.h ****         OVS_8,    /**< & */
  82:../../../libDaisy/src/per/adc.h ****         OVS_16,   /**< & */
  83:../../../libDaisy/src/per/adc.h ****         OVS_32,   /**< & */
  84:../../../libDaisy/src/per/adc.h ****         OVS_64,   /**< & */
  85:../../../libDaisy/src/per/adc.h ****         OVS_128,  /**< & */
  86:../../../libDaisy/src/per/adc.h ****         OVS_256,  /**< & */
  87:../../../libDaisy/src/per/adc.h ****         OVS_512,  /**< & */
  88:../../../libDaisy/src/per/adc.h ****         OVS_1024, /**< & */
  89:../../../libDaisy/src/per/adc.h ****         OVS_LAST, /**< & */
  90:../../../libDaisy/src/per/adc.h ****     };
  91:../../../libDaisy/src/per/adc.h **** 
  92:../../../libDaisy/src/per/adc.h ****     AdcHandle() {}
  93:../../../libDaisy/src/per/adc.h ****     ~AdcHandle() {}
 122              		.loc 7 93 5 is_stmt 1 view .LVU11
 123              		.loc 7 93 5 is_stmt 0 view .LVU12
 124              	.LBE105:
 125              	.LBB106:
 126              	.LBI106:
 127              		.file 8 "../../../libDaisy/src/hid/audio.h"
   1:../../../libDaisy/src/hid/audio.h **** #ifndef DSY_AUDIO_H
   2:../../../libDaisy/src/hid/audio.h **** #define DSY_AUDIO_H /**< & */
   3:../../../libDaisy/src/hid/audio.h **** 
   4:../../../libDaisy/src/hid/audio.h **** #include "per/sai.h"
   5:../../../libDaisy/src/hid/audio.h **** 
   6:../../../libDaisy/src/hid/audio.h **** namespace daisy
   7:../../../libDaisy/src/hid/audio.h **** {
   8:../../../libDaisy/src/hid/audio.h **** /** @brief Audio Engine Handle
   9:../../../libDaisy/src/hid/audio.h ****  *  @ingroup audio 
  10:../../../libDaisy/src/hid/audio.h ****  *  @details This class allows for higher level access to an audio engine.
  11:../../../libDaisy/src/hid/audio.h ****  *           If you're using a SOM like the DaisySeed or DaisyPatchSM (or any 
  12:../../../libDaisy/src/hid/audio.h ****  *            board that includes one of those objects) then the intialization
  13:../../../libDaisy/src/hid/audio.h ****  *            is already taken  care of.
  14:../../../libDaisy/src/hid/audio.h ****  *           If you're setting up your own custom hardware, or need to make changes
  15:../../../libDaisy/src/hid/audio.h ****  *           you will have to take the following steps:
  16:../../../libDaisy/src/hid/audio.h ****  *             1. Create and Initialize an SaiHandle or two depending on your requirements
  17:../../../libDaisy/src/hid/audio.h ****  *             2. Initialize the Audio Handle with the desired settings and the Initialized SaiHand
  18:../../../libDaisy/src/hid/audio.h ****  *             3. If the connected codec requires special configuration or initialization, do so
  19:../../../libDaisy/src/hid/audio.h ****  *             4. Write a callback method using either the AudioCallback or the InterleavingAudioCa
  20:../../../libDaisy/src/hid/audio.h ****  *             5. Start the Audio using one of the StartAudio function
  21:../../../libDaisy/src/hid/audio.h ****  */
  22:../../../libDaisy/src/hid/audio.h **** class AudioHandle
  23:../../../libDaisy/src/hid/audio.h **** {
  24:../../../libDaisy/src/hid/audio.h ****   public:
  25:../../../libDaisy/src/hid/audio.h ****     /** Manually configurable details about the Audio Engine */
  26:../../../libDaisy/src/hid/audio.h ****     /** TODO: Figure out how to get samplerate in here. */
  27:../../../libDaisy/src/hid/audio.h ****     struct Config
  28:../../../libDaisy/src/hid/audio.h ****     {
  29:../../../libDaisy/src/hid/audio.h ****         /** number of samples to process per callback */
  30:../../../libDaisy/src/hid/audio.h ****         size_t blocksize;
  31:../../../libDaisy/src/hid/audio.h **** 
  32:../../../libDaisy/src/hid/audio.h ****         /**< Sample rate of audio */
  33:../../../libDaisy/src/hid/audio.h ****         SaiHandle::Config::SampleRate samplerate;
ARM GAS  /var/folders/yw/6_x9gyn52jjg4jtn_wsryx_80000gp/T//ccNVG2zx.s 			page 9


  34:../../../libDaisy/src/hid/audio.h **** 
  35:../../../libDaisy/src/hid/audio.h ****         /** factor for adjustment before and after callback for hardware that may have extra headro
  36:../../../libDaisy/src/hid/audio.h ****         float postgain;
  37:../../../libDaisy/src/hid/audio.h **** 
  38:../../../libDaisy/src/hid/audio.h ****         /** factor for additional one-sided compensation to audio path for hardware that may
  39:../../../libDaisy/src/hid/audio.h ****          *  have unequal input/output ranges
  40:../../../libDaisy/src/hid/audio.h ****          */
  41:../../../libDaisy/src/hid/audio.h ****         float output_compensation;
  42:../../../libDaisy/src/hid/audio.h **** 
  43:../../../libDaisy/src/hid/audio.h ****         /** Sets default values for config struct */
  44:../../../libDaisy/src/hid/audio.h ****         Config()
  45:../../../libDaisy/src/hid/audio.h ****         : blocksize(48),
  46:../../../libDaisy/src/hid/audio.h ****           samplerate(SaiHandle::Config::SampleRate::SAI_48KHZ),
  47:../../../libDaisy/src/hid/audio.h ****           postgain(1.f),
  48:../../../libDaisy/src/hid/audio.h ****           output_compensation(1.f)
  49:../../../libDaisy/src/hid/audio.h ****         {
  50:../../../libDaisy/src/hid/audio.h ****         }
  51:../../../libDaisy/src/hid/audio.h ****     };
  52:../../../libDaisy/src/hid/audio.h **** 
  53:../../../libDaisy/src/hid/audio.h ****     enum class Result
  54:../../../libDaisy/src/hid/audio.h ****     {
  55:../../../libDaisy/src/hid/audio.h ****         OK,
  56:../../../libDaisy/src/hid/audio.h ****         ERR,
  57:../../../libDaisy/src/hid/audio.h ****     };
  58:../../../libDaisy/src/hid/audio.h **** 
  59:../../../libDaisy/src/hid/audio.h ****     /** Non-Interleaving input buffer
  60:../../../libDaisy/src/hid/audio.h ****      * Buffer arranged by float[chn][sample] 
  61:../../../libDaisy/src/hid/audio.h ****      * const so that the user can't modify the input
  62:../../../libDaisy/src/hid/audio.h ****      */
  63:../../../libDaisy/src/hid/audio.h ****     typedef const float* const* InputBuffer;
  64:../../../libDaisy/src/hid/audio.h **** 
  65:../../../libDaisy/src/hid/audio.h ****     /** Non-Interleaving output buffer
  66:../../../libDaisy/src/hid/audio.h ****      * Arranged by float[chn][sample] 
  67:../../../libDaisy/src/hid/audio.h ****      */
  68:../../../libDaisy/src/hid/audio.h ****     typedef float** OutputBuffer;
  69:../../../libDaisy/src/hid/audio.h **** 
  70:../../../libDaisy/src/hid/audio.h ****     /** Type for a Non-Interleaving audio callback 
  71:../../../libDaisy/src/hid/audio.h ****      * Non-Interleaving audio callbacks in daisy will be of this type
  72:../../../libDaisy/src/hid/audio.h ****      */
  73:../../../libDaisy/src/hid/audio.h ****     typedef void (*AudioCallback)(InputBuffer  in,
  74:../../../libDaisy/src/hid/audio.h ****                                   OutputBuffer out,
  75:../../../libDaisy/src/hid/audio.h ****                                   size_t       size);
  76:../../../libDaisy/src/hid/audio.h **** 
  77:../../../libDaisy/src/hid/audio.h ****     /** Interleaving Input buffer
  78:../../../libDaisy/src/hid/audio.h ****      ** audio is prepared as { L0, R0, L1, R1, . . . LN, RN }]
  79:../../../libDaisy/src/hid/audio.h ****      ** this is const, as the user shouldn't modify it
  80:../../../libDaisy/src/hid/audio.h ****     */
  81:../../../libDaisy/src/hid/audio.h ****     typedef const float* InterleavingInputBuffer;
  82:../../../libDaisy/src/hid/audio.h **** 
  83:../../../libDaisy/src/hid/audio.h ****     /** Interleaving Output buffer 
  84:../../../libDaisy/src/hid/audio.h ****      ** audio is prepared as { L0, R0, L1, R1, . . . LN, RN }
  85:../../../libDaisy/src/hid/audio.h ****     */
  86:../../../libDaisy/src/hid/audio.h ****     typedef float* InterleavingOutputBuffer;
  87:../../../libDaisy/src/hid/audio.h **** 
  88:../../../libDaisy/src/hid/audio.h ****     /** Interleaving Audio Callback 
  89:../../../libDaisy/src/hid/audio.h ****      * Interleaving audio callbacks in daisy must be of this type
  90:../../../libDaisy/src/hid/audio.h ****      */
ARM GAS  /var/folders/yw/6_x9gyn52jjg4jtn_wsryx_80000gp/T//ccNVG2zx.s 			page 10


  91:../../../libDaisy/src/hid/audio.h ****     typedef void (*InterleavingAudioCallback)(InterleavingInputBuffer  in,
  92:../../../libDaisy/src/hid/audio.h ****                                               InterleavingOutputBuffer out,
  93:../../../libDaisy/src/hid/audio.h ****                                               size_t                   size);
  94:../../../libDaisy/src/hid/audio.h **** 
  95:../../../libDaisy/src/hid/audio.h ****     AudioHandle() : pimpl_(nullptr) {}
  96:../../../libDaisy/src/hid/audio.h ****     ~AudioHandle() {}
 128              		.loc 8 96 5 is_stmt 1 view .LVU13
 129              		.loc 8 96 5 is_stmt 0 view .LVU14
 130              	.LBE106:
 131              		.loc 4 22 19 view .LVU15
 132 0000 7047     		bx	lr
 133              		.cfi_endproc
 134              	.LFE4784:
 136              		.weak	_ZN5daisy9DaisySeedD1Ev
 137              		.thumb_set _ZN5daisy9DaisySeedD1Ev,_ZN5daisy9DaisySeedD2Ev
 138 0002 00BF     		.section	.text.startup.main,"ax",%progbits
 139              		.align	1
 140              		.p2align 2,,3
 141              		.global	main
 142              		.syntax unified
 143              		.thumb
 144              		.thumb_func
 146              	main:
 147              	.LFB4790:
 148              		.file 9 "adsrWithPots.cpp"
   1:adsrWithPots.cpp **** 
   2:adsrWithPots.cpp **** #include "daisysp.h"
   3:adsrWithPots.cpp **** #include "daisy_seed.h"
   4:adsrWithPots.cpp **** 
   5:adsrWithPots.cpp **** // Shortening long macro for sample rate
   6:adsrWithPots.cpp **** #ifndef sample_rate
   7:adsrWithPots.cpp **** #endif
   8:adsrWithPots.cpp **** 
   9:adsrWithPots.cpp **** // Interleaved audio definitions
  10:adsrWithPots.cpp **** #define LEFT (i)
  11:adsrWithPots.cpp **** #define RIGHT (i + 1)
  12:adsrWithPots.cpp **** // set maximimum ADSR values in seconds 
  13:adsrWithPots.cpp **** #define maxAttack 1
  14:adsrWithPots.cpp **** #define maxDecay 2
  15:adsrWithPots.cpp **** #define maxSustain 1
  16:adsrWithPots.cpp **** #define maxRelease 5
  17:adsrWithPots.cpp **** 
  18:adsrWithPots.cpp **** using namespace daisysp;
  19:adsrWithPots.cpp **** using namespace daisy;
  20:adsrWithPots.cpp **** 
  21:adsrWithPots.cpp **** //globals
  22:adsrWithPots.cpp **** float adsrValues[4];
  23:adsrWithPots.cpp **** //function protos
  24:adsrWithPots.cpp **** void setadsrValues();
  25:adsrWithPots.cpp **** 
  26:adsrWithPots.cpp **** static DaisySeed  hw;
  27:adsrWithPots.cpp **** static Adsr       env;
  28:adsrWithPots.cpp **** static Oscillator osc;
  29:adsrWithPots.cpp **** static Metro      tick;
  30:adsrWithPots.cpp **** bool              gate;
  31:adsrWithPots.cpp **** 
  32:adsrWithPots.cpp **** static void AudioCallback(AudioHandle::InterleavingInputBuffer  in,
ARM GAS  /var/folders/yw/6_x9gyn52jjg4jtn_wsryx_80000gp/T//ccNVG2zx.s 			page 11


  33:adsrWithPots.cpp ****                           AudioHandle::InterleavingOutputBuffer out,
  34:adsrWithPots.cpp ****                           size_t                                size)
  35:adsrWithPots.cpp **** { 
  36:adsrWithPots.cpp **** 	setadsrValues();
  37:adsrWithPots.cpp **** 	
  38:adsrWithPots.cpp **** 	float osc_out, env_out;
  39:adsrWithPots.cpp ****     for(size_t i = 0; i < size; i += 2)
  40:adsrWithPots.cpp ****     {
  41:adsrWithPots.cpp ****         // When the metro ticks, trigger the envelope to start.
  42:adsrWithPots.cpp ****         if(tick.Process())
  43:adsrWithPots.cpp ****         {
  44:adsrWithPots.cpp ****             gate = !gate;
  45:adsrWithPots.cpp ****         }
  46:adsrWithPots.cpp **** 
  47:adsrWithPots.cpp ****         // Use envelope to control the amplitude of the oscillator.  
  48:adsrWithPots.cpp **** 		env_out = env.Process(gate);
  49:adsrWithPots.cpp ****         osc.SetAmp(env_out);
  50:adsrWithPots.cpp ****         osc_out = osc.Process();
  51:adsrWithPots.cpp **** 
  52:adsrWithPots.cpp ****         out[LEFT]  = osc_out;
  53:adsrWithPots.cpp ****         out[RIGHT] = osc_out;
  54:adsrWithPots.cpp ****     }
  55:adsrWithPots.cpp **** }
  56:adsrWithPots.cpp **** 
  57:adsrWithPots.cpp **** int main(void)
  58:adsrWithPots.cpp **** {
 149              		.loc 9 58 1 is_stmt 1 view -0
 150              		.cfi_startproc
 151              		@ args = 0, pretend = 0, frame = 72
 152              		@ frame_needed = 0, uses_anonymous_args = 0
  59:adsrWithPots.cpp ****     // initialize seed hardware and daisysp modules
  60:adsrWithPots.cpp ****     float sample_rate;
 153              		.loc 9 60 5 view .LVU17
  61:adsrWithPots.cpp ****     hw.Configure();
 154              		.loc 9 61 5 view .LVU18
  58:adsrWithPots.cpp ****     // initialize seed hardware and daisysp modules
 155              		.loc 9 58 1 is_stmt 0 view .LVU19
 156 0000 2DE9F041 		push	{r4, r5, r6, r7, r8, lr}
 157              		.cfi_def_cfa_offset 24
 158              		.cfi_offset 4, -24
 159              		.cfi_offset 5, -20
 160              		.cfi_offset 6, -16
 161              		.cfi_offset 7, -12
 162              		.cfi_offset 8, -8
 163              		.cfi_offset 14, -4
 164              		.loc 9 61 17 view .LVU20
 165 0004 4948     		ldr	r0, .L9
 166              	.LBB125:
 167              	.LBB126:
  17:../../../DaisySP/Source/Synthesis/oscillator.h ****     /** Choices for output waveforms, POLYBLEP are appropriately labeled. Others are naive forms.
  18:../../../DaisySP/Source/Synthesis/oscillator.h ****     */
  19:../../../DaisySP/Source/Synthesis/oscillator.h ****     enum
  20:../../../DaisySP/Source/Synthesis/oscillator.h ****     {
  21:../../../DaisySP/Source/Synthesis/oscillator.h ****         WAVE_SIN,
  22:../../../DaisySP/Source/Synthesis/oscillator.h ****         WAVE_TRI,
  23:../../../DaisySP/Source/Synthesis/oscillator.h ****         WAVE_SAW,
  24:../../../DaisySP/Source/Synthesis/oscillator.h ****         WAVE_RAMP,
ARM GAS  /var/folders/yw/6_x9gyn52jjg4jtn_wsryx_80000gp/T//ccNVG2zx.s 			page 12


  25:../../../DaisySP/Source/Synthesis/oscillator.h ****         WAVE_SQUARE,
  26:../../../DaisySP/Source/Synthesis/oscillator.h ****         WAVE_POLYBLEP_TRI,
  27:../../../DaisySP/Source/Synthesis/oscillator.h ****         WAVE_POLYBLEP_SAW,
  28:../../../DaisySP/Source/Synthesis/oscillator.h ****         WAVE_POLYBLEP_SQUARE,
  29:../../../DaisySP/Source/Synthesis/oscillator.h ****         WAVE_LAST,
  30:../../../DaisySP/Source/Synthesis/oscillator.h ****     };
  31:../../../DaisySP/Source/Synthesis/oscillator.h **** 
  32:../../../DaisySP/Source/Synthesis/oscillator.h **** 
  33:../../../DaisySP/Source/Synthesis/oscillator.h ****     /** Initializes the Oscillator
  34:../../../DaisySP/Source/Synthesis/oscillator.h **** 
  35:../../../DaisySP/Source/Synthesis/oscillator.h ****         \param sample_rate - sample rate of the audio engine being run, and the frequency that the 
  36:../../../DaisySP/Source/Synthesis/oscillator.h **** 
  37:../../../DaisySP/Source/Synthesis/oscillator.h ****         Defaults:
  38:../../../DaisySP/Source/Synthesis/oscillator.h ****         - freq_ = 100 Hz
  39:../../../DaisySP/Source/Synthesis/oscillator.h ****         - amp_ = 0.5
  40:../../../DaisySP/Source/Synthesis/oscillator.h ****         - waveform_ = sine wave.
  41:../../../DaisySP/Source/Synthesis/oscillator.h ****     */
  42:../../../DaisySP/Source/Synthesis/oscillator.h ****     void Init(float sample_rate)
  43:../../../DaisySP/Source/Synthesis/oscillator.h ****     {
  44:../../../DaisySP/Source/Synthesis/oscillator.h ****         sr_        = sample_rate;
  45:../../../DaisySP/Source/Synthesis/oscillator.h ****         sr_recip_  = 1.0f / sample_rate;
  46:../../../DaisySP/Source/Synthesis/oscillator.h ****         freq_      = 100.0f;
  47:../../../DaisySP/Source/Synthesis/oscillator.h ****         amp_       = 0.5f;
  48:../../../DaisySP/Source/Synthesis/oscillator.h ****         pw_        = 0.5f;
  49:../../../DaisySP/Source/Synthesis/oscillator.h ****         pw_rad_    = pw_ * TWOPI_F;
  50:../../../DaisySP/Source/Synthesis/oscillator.h ****         phase_     = 0.0f;
  51:../../../DaisySP/Source/Synthesis/oscillator.h ****         phase_inc_ = CalcPhaseInc(freq_);
  52:../../../DaisySP/Source/Synthesis/oscillator.h ****         waveform_  = WAVE_SIN;
 168              		.loc 2 52 20 view .LVU21
 169 0006 0027     		movs	r7, #0
 170              	.LBE126:
 171              	.LBE125:
  62:adsrWithPots.cpp ****     hw.Init();
  63:adsrWithPots.cpp ****     hw.SetAudioBlockSize(4);
  64:adsrWithPots.cpp ****     sample_rate = hw.AudioSampleRate();
  65:adsrWithPots.cpp ****     env.Init(sample_rate);
 172              		.loc 9 65 13 view .LVU22
 173 0008 494D     		ldr	r5, .L9+4
 174 000a 4FF00208 		mov	r8, #2
 175              	.LBB131:
 176              	.LBB127:
  44:../../../DaisySP/Source/Synthesis/oscillator.h ****         sr_recip_  = 1.0f / sample_rate;
 177              		.loc 2 44 20 view .LVU23
 178 000e 494C     		ldr	r4, .L9+8
 179 0010 0126     		movs	r6, #1
 180              	.LBE127:
 181              	.LBE131:
  58:adsrWithPots.cpp ****     // initialize seed hardware and daisysp modules
 182              		.loc 9 58 1 view .LVU24
 183 0012 2DED028B 		vpush.64	{d8}
 184              		.cfi_def_cfa_offset 32
 185              		.cfi_offset 80, -32
 186              		.cfi_offset 81, -28
 187 0016 92B0     		sub	sp, sp, #72
 188              		.cfi_def_cfa_offset 104
 189              	.LBB132:
 190              	.LBB128:
ARM GAS  /var/folders/yw/6_x9gyn52jjg4jtn_wsryx_80000gp/T//ccNVG2zx.s 			page 13


  45:../../../DaisySP/Source/Synthesis/oscillator.h ****         freq_      = 100.0f;
 191              		.loc 2 45 27 view .LVU25
 192 0018 F7EE008A 		vmov.f32	s17, #1.0e+0
 193              	.LBE128:
 194              	.LBE132:
  61:adsrWithPots.cpp ****     hw.Init();
 195              		.loc 9 61 17 view .LVU26
 196 001c FFF7FEFF 		bl	_ZN5daisy9DaisySeed9ConfigureEv
 197              	.LVL4:
  62:adsrWithPots.cpp ****     hw.SetAudioBlockSize(4);
 198              		.loc 9 62 5 is_stmt 1 view .LVU27
  62:adsrWithPots.cpp ****     hw.SetAudioBlockSize(4);
 199              		.loc 9 62 12 is_stmt 0 view .LVU28
 200 0020 0021     		movs	r1, #0
 201 0022 4248     		ldr	r0, .L9
 202 0024 FFF7FEFF 		bl	_ZN5daisy9DaisySeed4InitEb
 203              	.LVL5:
  63:adsrWithPots.cpp ****     sample_rate = hw.AudioSampleRate();
 204              		.loc 9 63 5 is_stmt 1 view .LVU29
  63:adsrWithPots.cpp ****     sample_rate = hw.AudioSampleRate();
 205              		.loc 9 63 25 is_stmt 0 view .LVU30
 206 0028 0421     		movs	r1, #4
 207 002a 4048     		ldr	r0, .L9
 208 002c FFF7FEFF 		bl	_ZN5daisy9DaisySeed17SetAudioBlockSizeEj
 209              	.LVL6:
  64:adsrWithPots.cpp ****     env.Init(sample_rate);
 210              		.loc 9 64 5 is_stmt 1 view .LVU31
  64:adsrWithPots.cpp ****     env.Init(sample_rate);
 211              		.loc 9 64 37 is_stmt 0 view .LVU32
 212 0030 3E48     		ldr	r0, .L9
 213 0032 FFF7FEFF 		bl	_ZN5daisy9DaisySeed15AudioSampleRateEv
 214              	.LVL7:
 215 0036 B0EE408A 		vmov.f32	s16, s0
 216              	.LVL8:
 217              		.loc 9 65 5 is_stmt 1 view .LVU33
 218              		.loc 9 65 13 is_stmt 0 view .LVU34
 219 003a 0121     		movs	r1, #1
 220 003c 2846     		mov	r0, r5
 221 003e FFF7FEFF 		bl	_ZN7daisysp4Adsr4InitEfi
 222              	.LVL9:
  66:adsrWithPots.cpp ****     osc.Init(sample_rate);
 223              		.loc 9 66 5 is_stmt 1 view .LVU35
 224              	.LBB133:
 225              	.LBI125:
  42:../../../DaisySP/Source/Synthesis/oscillator.h ****     {
 226              		.loc 2 42 10 view .LVU36
 227              	.LBB129:
  44:../../../DaisySP/Source/Synthesis/oscillator.h ****         sr_recip_  = 1.0f / sample_rate;
 228              		.loc 2 44 9 view .LVU37
  47:../../../DaisySP/Source/Synthesis/oscillator.h ****         pw_        = 0.5f;
 229              		.loc 2 47 20 is_stmt 0 view .LVU38
 230 0042 4FF07C53 		mov	r3, #1056964608
  45:../../../DaisySP/Source/Synthesis/oscillator.h ****         freq_      = 100.0f;
 231              		.loc 2 45 27 view .LVU39
 232 0046 C8EE887A 		vdiv.f32	s15, s17, s16
  49:../../../DaisySP/Source/Synthesis/oscillator.h ****         phase_     = 0.0f;
 233              		.loc 2 49 20 view .LVU40
ARM GAS  /var/folders/yw/6_x9gyn52jjg4jtn_wsryx_80000gp/T//ccNVG2zx.s 			page 14


 234 004a 3B4A     		ldr	r2, .L9+12
  46:../../../DaisySP/Source/Synthesis/oscillator.h ****         amp_       = 0.5f;
 235              		.loc 2 46 20 view .LVU41
 236 004c 9FED3B0A 		vldr.32	s0, .L9+16
  51:../../../DaisySP/Source/Synthesis/oscillator.h ****         waveform_  = WAVE_SIN;
 237              		.loc 2 51 34 view .LVU42
 238 0050 2046     		mov	r0, r4
  47:../../../DaisySP/Source/Synthesis/oscillator.h ****         pw_        = 0.5f;
 239              		.loc 2 47 20 view .LVU43
 240 0052 6360     		str	r3, [r4, #4]	@ float
  48:../../../DaisySP/Source/Synthesis/oscillator.h ****         pw_rad_    = pw_ * TWOPI_F;
 241              		.loc 2 48 20 view .LVU44
 242 0054 E360     		str	r3, [r4, #12]	@ float
  50:../../../DaisySP/Source/Synthesis/oscillator.h ****         phase_inc_ = CalcPhaseInc(freq_);
 243              		.loc 2 50 20 view .LVU45
 244 0056 0023     		movs	r3, #0
  49:../../../DaisySP/Source/Synthesis/oscillator.h ****         phase_     = 0.0f;
 245              		.loc 2 49 20 view .LVU46
 246 0058 2261     		str	r2, [r4, #16]	@ float
  50:../../../DaisySP/Source/Synthesis/oscillator.h ****         phase_inc_ = CalcPhaseInc(freq_);
 247              		.loc 2 50 20 view .LVU47
 248 005a E361     		str	r3, [r4, #28]	@ float
  44:../../../DaisySP/Source/Synthesis/oscillator.h ****         sr_recip_  = 1.0f / sample_rate;
 249              		.loc 2 44 20 view .LVU48
 250 005c 84ED058A 		vstr.32	s16, [r4, #20]
  45:../../../DaisySP/Source/Synthesis/oscillator.h ****         freq_      = 100.0f;
 251              		.loc 2 45 9 is_stmt 1 view .LVU49
  46:../../../DaisySP/Source/Synthesis/oscillator.h ****         amp_       = 0.5f;
 252              		.loc 2 46 20 is_stmt 0 view .LVU50
 253 0060 84ED020A 		vstr.32	s0, [r4, #8]
  45:../../../DaisySP/Source/Synthesis/oscillator.h ****         freq_      = 100.0f;
 254              		.loc 2 45 20 view .LVU51
 255 0064 C4ED067A 		vstr.32	s15, [r4, #24]
  46:../../../DaisySP/Source/Synthesis/oscillator.h ****         amp_       = 0.5f;
 256              		.loc 2 46 9 is_stmt 1 view .LVU52
  47:../../../DaisySP/Source/Synthesis/oscillator.h ****         pw_        = 0.5f;
 257              		.loc 2 47 9 view .LVU53
  48:../../../DaisySP/Source/Synthesis/oscillator.h ****         pw_rad_    = pw_ * TWOPI_F;
 258              		.loc 2 48 9 view .LVU54
  49:../../../DaisySP/Source/Synthesis/oscillator.h ****         phase_     = 0.0f;
 259              		.loc 2 49 9 view .LVU55
  50:../../../DaisySP/Source/Synthesis/oscillator.h ****         phase_inc_ = CalcPhaseInc(freq_);
 260              		.loc 2 50 9 view .LVU56
  51:../../../DaisySP/Source/Synthesis/oscillator.h ****         waveform_  = WAVE_SIN;
 261              		.loc 2 51 9 view .LVU57
  51:../../../DaisySP/Source/Synthesis/oscillator.h ****         waveform_  = WAVE_SIN;
 262              		.loc 2 51 34 is_stmt 0 view .LVU58
 263 0068 FFF7FEFF 		bl	_ZN7daisysp10Oscillator12CalcPhaseIncEf
 264              	.LVL10:
  53:../../../DaisySP/Source/Synthesis/oscillator.h ****         eoc_       = true;
  54:../../../DaisySP/Source/Synthesis/oscillator.h ****         eor_       = true;
 265              		.loc 2 54 20 view .LVU59
 266 006c 40F20113 		movw	r3, #257
 267 0070 8DF80570 		strb	r7, [sp, #5]
 268 0074 8DF80480 		strb	r8, [sp, #4]
 269              	.LBE129:
 270              	.LBE133:
ARM GAS  /var/folders/yw/6_x9gyn52jjg4jtn_wsryx_80000gp/T//ccNVG2zx.s 			page 15


  67:adsrWithPots.cpp **** 
  68:adsrWithPots.cpp ****     // // set up ADC's
  69:adsrWithPots.cpp ****     AdcChannelConfig adc_cfg[3];
  70:adsrWithPots.cpp ****     adc_cfg[0].InitSingle(seed::A0);
 271              		.loc 9 70 26 view .LVU60
 272 0078 05A8     		add	r0, sp, #20
 273 007a 0199     		ldr	r1, [sp, #4]
 274              	.LBB134:
 275              	.LBB130:
  51:../../../DaisySP/Source/Synthesis/oscillator.h ****         waveform_  = WAVE_SIN;
 276              		.loc 2 51 20 view .LVU61
 277 007c 84ED080A 		vstr.32	s0, [r4, #32]
  52:../../../DaisySP/Source/Synthesis/oscillator.h ****         eoc_       = true;
 278              		.loc 2 52 9 is_stmt 1 view .LVU62
  52:../../../DaisySP/Source/Synthesis/oscillator.h ****         eoc_       = true;
 279              		.loc 2 52 20 is_stmt 0 view .LVU63
 280 0080 2770     		strb	r7, [r4]
  53:../../../DaisySP/Source/Synthesis/oscillator.h ****         eor_       = true;
 281              		.loc 2 53 9 is_stmt 1 view .LVU64
 282              		.loc 2 54 9 view .LVU65
 283              		.loc 2 54 20 is_stmt 0 view .LVU66
 284 0082 A385     		strh	r3, [r4, #44]	@ movhi
 285              	.LVL11:
 286              		.loc 2 54 20 view .LVU67
 287              	.LBE130:
 288              	.LBE134:
  69:adsrWithPots.cpp ****     adc_cfg[0].InitSingle(seed::A0);
 289              		.loc 9 69 5 is_stmt 1 view .LVU68
 290              		.loc 9 70 5 view .LVU69
 291              	.LBB135:
 292              	.LBI135:
 293              		.file 10 "../../../libDaisy/src/daisy_core.h"
   1:../../../libDaisy/src/daisy_core.h **** #pragma once
   2:../../../libDaisy/src/daisy_core.h **** #ifndef DSY_CORE_HW_H
   3:../../../libDaisy/src/daisy_core.h **** #define DSY_CORE_HW_H /**< & */
   4:../../../libDaisy/src/daisy_core.h **** #include <stdint.h>
   5:../../../libDaisy/src/daisy_core.h **** #include <stdlib.h>
   6:../../../libDaisy/src/daisy_core.h **** 
   7:../../../libDaisy/src/daisy_core.h **** #if defined(_MSC_VER)
   8:../../../libDaisy/src/daisy_core.h **** #define FORCE_INLINE __forceinline /**< & */
   9:../../../libDaisy/src/daisy_core.h **** #elif defined(__clang__)
  10:../../../libDaisy/src/daisy_core.h **** #define FORCE_INLINE inline __attribute__((always_inline)) /**< & */
  11:../../../libDaisy/src/daisy_core.h **** #pragma clang diagnostic ignored "-Wduplicate-decl-specifier"
  12:../../../libDaisy/src/daisy_core.h **** #elif defined(__GNUC__)
  13:../../../libDaisy/src/daisy_core.h **** #define FORCE_INLINE inline __attribute__((always_inline)) /**< & */
  14:../../../libDaisy/src/daisy_core.h **** #else
  15:../../../libDaisy/src/daisy_core.h **** #error unknown compiler
  16:../../../libDaisy/src/daisy_core.h **** #endif
  17:../../../libDaisy/src/daisy_core.h **** 
  18:../../../libDaisy/src/daisy_core.h **** /** @addtogroup utility
  19:../../../libDaisy/src/daisy_core.h ****     @{
  20:../../../libDaisy/src/daisy_core.h **** */
  21:../../../libDaisy/src/daisy_core.h **** 
  22:../../../libDaisy/src/daisy_core.h **** /** Macro for area of memory that is configured as cacheless
  23:../../../libDaisy/src/daisy_core.h **** This should be used primarily for DMA buffers, and the like.
  24:../../../libDaisy/src/daisy_core.h **** */
  25:../../../libDaisy/src/daisy_core.h **** #define DMA_BUFFER_MEM_SECTION __attribute__((section(".sram1_bss")))
ARM GAS  /var/folders/yw/6_x9gyn52jjg4jtn_wsryx_80000gp/T//ccNVG2zx.s 			page 16


  26:../../../libDaisy/src/daisy_core.h **** /** 
  27:../../../libDaisy/src/daisy_core.h **** THE DTCM RAM section is also non-cached. However, is not suitable 
  28:../../../libDaisy/src/daisy_core.h **** for DMA transfers. Performance is on par with internal SRAM w/ 
  29:../../../libDaisy/src/daisy_core.h **** cache enabled.
  30:../../../libDaisy/src/daisy_core.h **** */
  31:../../../libDaisy/src/daisy_core.h **** #define DTCM_MEM_SECTION __attribute__((section(".dtcmram_bss")))
  32:../../../libDaisy/src/daisy_core.h **** 
  33:../../../libDaisy/src/daisy_core.h **** #define FBIPMAX 0.999985f             /**< close to 1.0f-LSB at 16 bit */
  34:../../../libDaisy/src/daisy_core.h **** #define FBIPMIN (-FBIPMAX)            /**< - (1 - LSB) */
  35:../../../libDaisy/src/daisy_core.h **** #define U82F_SCALE 0.0078740f         /**< 1 / 127 */
  36:../../../libDaisy/src/daisy_core.h **** #define F2U8_SCALE 127.0f             /**< 128 - 1 */
  37:../../../libDaisy/src/daisy_core.h **** #define S82F_SCALE 0.0078125f         /**< 1 / (2**7) */
  38:../../../libDaisy/src/daisy_core.h **** #define F2S8_SCALE 127.0f             /**< (2 ** 7) - 1 */
  39:../../../libDaisy/src/daisy_core.h **** #define S162F_SCALE 3.0517578125e-05f /**< 1 / (2** 15) */
  40:../../../libDaisy/src/daisy_core.h **** #define F2S16_SCALE 32767.0f          /**< (2 ** 15) - 1 */
  41:../../../libDaisy/src/daisy_core.h **** #define F2S24_SCALE 8388608.0f        /**< 2 ** 23 */
  42:../../../libDaisy/src/daisy_core.h **** #define S242F_SCALE 1.192092896e-07f  /**< 1 / (2 ** 23) */
  43:../../../libDaisy/src/daisy_core.h **** #define S24SIGN 0x800000              /**< 2 ** 23 */
  44:../../../libDaisy/src/daisy_core.h **** #define S322F_SCALE 4.6566129e-10f    /**< 1 / (2** 31) */
  45:../../../libDaisy/src/daisy_core.h **** #define F2S32_SCALE 2147483647.f      /**< (2 ** 31) - 1 */
  46:../../../libDaisy/src/daisy_core.h **** 
  47:../../../libDaisy/src/daisy_core.h **** 
  48:../../../libDaisy/src/daisy_core.h **** /** shorthand macro for simplifying the reading of the left 
  49:../../../libDaisy/src/daisy_core.h ****  *  channel of a non-interleaved output buffer named out */
  50:../../../libDaisy/src/daisy_core.h **** #define OUT_L out[0]
  51:../../../libDaisy/src/daisy_core.h **** 
  52:../../../libDaisy/src/daisy_core.h **** /** shorthand macro for simplifying the reading of the right 
  53:../../../libDaisy/src/daisy_core.h ****  *  channel of a non-interleaved output buffer named out */
  54:../../../libDaisy/src/daisy_core.h **** #define OUT_R out[1]
  55:../../../libDaisy/src/daisy_core.h **** 
  56:../../../libDaisy/src/daisy_core.h **** /** shorthand macro for simplifying the reading of the left 
  57:../../../libDaisy/src/daisy_core.h ****  *  channel of a non-interleaved input buffer named in */
  58:../../../libDaisy/src/daisy_core.h **** #define IN_L in[0]
  59:../../../libDaisy/src/daisy_core.h **** 
  60:../../../libDaisy/src/daisy_core.h **** /** shorthand macro for simplifying the reading of the right 
  61:../../../libDaisy/src/daisy_core.h ****  *  channel of a non-interleaved input buffer named in */
  62:../../../libDaisy/src/daisy_core.h **** #define IN_R in[1]
  63:../../../libDaisy/src/daisy_core.h **** 
  64:../../../libDaisy/src/daisy_core.h **** /** 
  65:../../../libDaisy/src/daisy_core.h ****     Computes cube.
  66:../../../libDaisy/src/daisy_core.h ****     \param x Number to be cubed
  67:../../../libDaisy/src/daisy_core.h ****     \return x ^ 3
  68:../../../libDaisy/src/daisy_core.h **** */
  69:../../../libDaisy/src/daisy_core.h **** FORCE_INLINE float cube(float x)
  70:../../../libDaisy/src/daisy_core.h **** {
  71:../../../libDaisy/src/daisy_core.h ****     return (x * x) * x;
  72:../../../libDaisy/src/daisy_core.h **** }
  73:../../../libDaisy/src/daisy_core.h **** 
  74:../../../libDaisy/src/daisy_core.h **** /** 
  75:../../../libDaisy/src/daisy_core.h ****     Converts unsigned 8-bit to float
  76:../../../libDaisy/src/daisy_core.h ****     \param x Number to be scaled.
  77:../../../libDaisy/src/daisy_core.h ****     \return Scaled number.
  78:../../../libDaisy/src/daisy_core.h **** */
  79:../../../libDaisy/src/daisy_core.h **** FORCE_INLINE float u82f(uint8_t x)
  80:../../../libDaisy/src/daisy_core.h **** {
  81:../../../libDaisy/src/daisy_core.h ****     return ((float)x - 127.f) * U82F_SCALE;
  82:../../../libDaisy/src/daisy_core.h **** }
ARM GAS  /var/folders/yw/6_x9gyn52jjg4jtn_wsryx_80000gp/T//ccNVG2zx.s 			page 17


  83:../../../libDaisy/src/daisy_core.h **** 
  84:../../../libDaisy/src/daisy_core.h **** /**
  85:../../../libDaisy/src/daisy_core.h ****     Converts float to unsigned 8-bit
  86:../../../libDaisy/src/daisy_core.h **** */
  87:../../../libDaisy/src/daisy_core.h **** FORCE_INLINE uint8_t f2u8(float x)
  88:../../../libDaisy/src/daisy_core.h **** {
  89:../../../libDaisy/src/daisy_core.h ****     x = x <= FBIPMIN ? FBIPMIN : x;
  90:../../../libDaisy/src/daisy_core.h ****     x = x >= FBIPMAX ? FBIPMAX : x;
  91:../../../libDaisy/src/daisy_core.h ****     return (uint8_t)((x * F2U8_SCALE) + F2U8_SCALE);
  92:../../../libDaisy/src/daisy_core.h **** }
  93:../../../libDaisy/src/daisy_core.h **** 
  94:../../../libDaisy/src/daisy_core.h **** 
  95:../../../libDaisy/src/daisy_core.h **** /** 
  96:../../../libDaisy/src/daisy_core.h ****     Converts Signed 8-bit to float
  97:../../../libDaisy/src/daisy_core.h ****     \param x Number to be scaled.
  98:../../../libDaisy/src/daisy_core.h ****     \return Scaled number.
  99:../../../libDaisy/src/daisy_core.h **** */
 100:../../../libDaisy/src/daisy_core.h **** FORCE_INLINE float s82f(int8_t x)
 101:../../../libDaisy/src/daisy_core.h **** {
 102:../../../libDaisy/src/daisy_core.h ****     return (float)x * S82F_SCALE;
 103:../../../libDaisy/src/daisy_core.h **** }
 104:../../../libDaisy/src/daisy_core.h **** 
 105:../../../libDaisy/src/daisy_core.h **** /**
 106:../../../libDaisy/src/daisy_core.h ****     Converts float to Signed 8-bit
 107:../../../libDaisy/src/daisy_core.h **** */
 108:../../../libDaisy/src/daisy_core.h **** FORCE_INLINE int8_t f2s8(float x)
 109:../../../libDaisy/src/daisy_core.h **** {
 110:../../../libDaisy/src/daisy_core.h ****     x = x <= FBIPMIN ? FBIPMIN : x;
 111:../../../libDaisy/src/daisy_core.h ****     x = x >= FBIPMAX ? FBIPMAX : x;
 112:../../../libDaisy/src/daisy_core.h ****     return (int32_t)(x * F2S8_SCALE);
 113:../../../libDaisy/src/daisy_core.h **** }
 114:../../../libDaisy/src/daisy_core.h **** 
 115:../../../libDaisy/src/daisy_core.h **** /** 
 116:../../../libDaisy/src/daisy_core.h ****     Converts Signed 16-bit to float
 117:../../../libDaisy/src/daisy_core.h ****     \param x Number to be scaled.
 118:../../../libDaisy/src/daisy_core.h ****     \return Scaled number.
 119:../../../libDaisy/src/daisy_core.h **** */
 120:../../../libDaisy/src/daisy_core.h **** FORCE_INLINE float s162f(int16_t x)
 121:../../../libDaisy/src/daisy_core.h **** {
 122:../../../libDaisy/src/daisy_core.h ****     return (float)x * S162F_SCALE;
 123:../../../libDaisy/src/daisy_core.h **** }
 124:../../../libDaisy/src/daisy_core.h **** 
 125:../../../libDaisy/src/daisy_core.h **** /**
 126:../../../libDaisy/src/daisy_core.h ****     Converts float to Signed 16-bit
 127:../../../libDaisy/src/daisy_core.h **** */
 128:../../../libDaisy/src/daisy_core.h **** FORCE_INLINE int16_t f2s16(float x)
 129:../../../libDaisy/src/daisy_core.h **** {
 130:../../../libDaisy/src/daisy_core.h ****     x = x <= FBIPMIN ? FBIPMIN : x;
 131:../../../libDaisy/src/daisy_core.h ****     x = x >= FBIPMAX ? FBIPMAX : x;
 132:../../../libDaisy/src/daisy_core.h ****     return (int32_t)(x * F2S16_SCALE);
 133:../../../libDaisy/src/daisy_core.h **** }
 134:../../../libDaisy/src/daisy_core.h **** 
 135:../../../libDaisy/src/daisy_core.h **** /**
 136:../../../libDaisy/src/daisy_core.h ****     Converts Signed 24-bit to float
 137:../../../libDaisy/src/daisy_core.h ****  */
 138:../../../libDaisy/src/daisy_core.h **** FORCE_INLINE float s242f(int32_t x)
 139:../../../libDaisy/src/daisy_core.h **** {
ARM GAS  /var/folders/yw/6_x9gyn52jjg4jtn_wsryx_80000gp/T//ccNVG2zx.s 			page 18


 140:../../../libDaisy/src/daisy_core.h ****     x = (x ^ S24SIGN) - S24SIGN; //sign extend aka ((x<<8)>>8)
 141:../../../libDaisy/src/daisy_core.h ****     return (float)x * S242F_SCALE;
 142:../../../libDaisy/src/daisy_core.h **** }
 143:../../../libDaisy/src/daisy_core.h **** /**
 144:../../../libDaisy/src/daisy_core.h ****     Converts float to Signed 24-bit
 145:../../../libDaisy/src/daisy_core.h ****  */
 146:../../../libDaisy/src/daisy_core.h **** FORCE_INLINE int32_t f2s24(float x)
 147:../../../libDaisy/src/daisy_core.h **** {
 148:../../../libDaisy/src/daisy_core.h ****     x = x <= FBIPMIN ? FBIPMIN : x;
 149:../../../libDaisy/src/daisy_core.h ****     x = x >= FBIPMAX ? FBIPMAX : x;
 150:../../../libDaisy/src/daisy_core.h ****     return (int32_t)(x * F2S24_SCALE);
 151:../../../libDaisy/src/daisy_core.h **** }
 152:../../../libDaisy/src/daisy_core.h **** 
 153:../../../libDaisy/src/daisy_core.h **** /**
 154:../../../libDaisy/src/daisy_core.h ****     Converts Signed 32-bit to float
 155:../../../libDaisy/src/daisy_core.h ****  */
 156:../../../libDaisy/src/daisy_core.h **** FORCE_INLINE float s322f(int32_t x)
 157:../../../libDaisy/src/daisy_core.h **** {
 158:../../../libDaisy/src/daisy_core.h ****     return (float)x * S322F_SCALE;
 159:../../../libDaisy/src/daisy_core.h **** }
 160:../../../libDaisy/src/daisy_core.h **** /**
 161:../../../libDaisy/src/daisy_core.h ****     Converts float to Signed 24-bit
 162:../../../libDaisy/src/daisy_core.h ****  */
 163:../../../libDaisy/src/daisy_core.h **** FORCE_INLINE int32_t f2s32(float x)
 164:../../../libDaisy/src/daisy_core.h **** {
 165:../../../libDaisy/src/daisy_core.h ****     x = x <= FBIPMIN ? FBIPMIN : x;
 166:../../../libDaisy/src/daisy_core.h ****     x = x >= FBIPMAX ? FBIPMAX : x;
 167:../../../libDaisy/src/daisy_core.h ****     return (int32_t)(x * F2S32_SCALE);
 168:../../../libDaisy/src/daisy_core.h **** }
 169:../../../libDaisy/src/daisy_core.h **** 
 170:../../../libDaisy/src/daisy_core.h **** 
 171:../../../libDaisy/src/daisy_core.h **** /** Enums and a simple struct for defining a hardware pin on the MCU
 172:../../../libDaisy/src/daisy_core.h ****  *  These correlate with the stm32 datasheet, and are used to configure
 173:../../../libDaisy/src/daisy_core.h ****  *  the hardware.
 174:../../../libDaisy/src/daisy_core.h ****  * 
 175:../../../libDaisy/src/daisy_core.h ****  *  This along with the dsy_gpio_pin class should no longer be used.
 176:../../../libDaisy/src/daisy_core.h ****  *  They are available for backwards compatability. 
 177:../../../libDaisy/src/daisy_core.h ****  * 
 178:../../../libDaisy/src/daisy_core.h ****  *  Please use GPIOPort enum and the Pin struct instead.
 179:../../../libDaisy/src/daisy_core.h ****  */
 180:../../../libDaisy/src/daisy_core.h **** typedef enum
 181:../../../libDaisy/src/daisy_core.h **** {
 182:../../../libDaisy/src/daisy_core.h ****     DSY_GPIOA, /**< & */
 183:../../../libDaisy/src/daisy_core.h ****     DSY_GPIOB, /**< & */
 184:../../../libDaisy/src/daisy_core.h ****     DSY_GPIOC, /**< & */
 185:../../../libDaisy/src/daisy_core.h ****     DSY_GPIOD, /**< & */
 186:../../../libDaisy/src/daisy_core.h ****     DSY_GPIOE, /**< & */
 187:../../../libDaisy/src/daisy_core.h ****     DSY_GPIOF, /**< & */
 188:../../../libDaisy/src/daisy_core.h ****     DSY_GPIOG, /**< & */
 189:../../../libDaisy/src/daisy_core.h ****     DSY_GPIOH, /**< & */
 190:../../../libDaisy/src/daisy_core.h ****     DSY_GPIOI, /**< & */
 191:../../../libDaisy/src/daisy_core.h ****     DSY_GPIOJ, /**< & */
 192:../../../libDaisy/src/daisy_core.h ****     DSY_GPIOK, /**< & */
 193:../../../libDaisy/src/daisy_core.h ****     DSY_GPIOX, /** This is a non-existant port for unsupported bits of hardware. */
 194:../../../libDaisy/src/daisy_core.h ****     DSY_GPIO_LAST, /** Final enum member */
 195:../../../libDaisy/src/daisy_core.h **** } dsy_gpio_port;
 196:../../../libDaisy/src/daisy_core.h **** 
ARM GAS  /var/folders/yw/6_x9gyn52jjg4jtn_wsryx_80000gp/T//ccNVG2zx.s 			page 19


 197:../../../libDaisy/src/daisy_core.h **** /** Hardware define pins 
 198:../../../libDaisy/src/daisy_core.h ****  *  
 199:../../../libDaisy/src/daisy_core.h ****  *  The dsy_gpio_pin struct should no longer be used, and is only available for
 200:../../../libDaisy/src/daisy_core.h ****  *  backwards compatability.
 201:../../../libDaisy/src/daisy_core.h ****  * 
 202:../../../libDaisy/src/daisy_core.h ****  *  Please use Pin struct instead.
 203:../../../libDaisy/src/daisy_core.h ****  */
 204:../../../libDaisy/src/daisy_core.h **** typedef struct
 205:../../../libDaisy/src/daisy_core.h **** {
 206:../../../libDaisy/src/daisy_core.h ****     dsy_gpio_port port; /**< & */
 207:../../../libDaisy/src/daisy_core.h ****     uint8_t       pin;  /**< number 0-15 */
 208:../../../libDaisy/src/daisy_core.h **** } dsy_gpio_pin;
 209:../../../libDaisy/src/daisy_core.h **** 
 210:../../../libDaisy/src/daisy_core.h **** /** Helper for creating pins from port/pin combos easily
 211:../../../libDaisy/src/daisy_core.h ****  * 
 212:../../../libDaisy/src/daisy_core.h ****  *  The dsy_gpio_pin struct should no longer be used, and is only available for
 213:../../../libDaisy/src/daisy_core.h ****  *  backwards compatability.
 214:../../../libDaisy/src/daisy_core.h ****  * 
 215:../../../libDaisy/src/daisy_core.h ****  *  Please use Pin struct instead.
 216:../../../libDaisy/src/daisy_core.h **** */
 217:../../../libDaisy/src/daisy_core.h **** FORCE_INLINE dsy_gpio_pin dsy_pin(dsy_gpio_port port, uint8_t pin)
 218:../../../libDaisy/src/daisy_core.h **** {
 219:../../../libDaisy/src/daisy_core.h ****     dsy_gpio_pin p;
 220:../../../libDaisy/src/daisy_core.h ****     p.port = port;
 221:../../../libDaisy/src/daisy_core.h ****     p.pin  = pin;
 222:../../../libDaisy/src/daisy_core.h ****     return p;
 223:../../../libDaisy/src/daisy_core.h **** }
 224:../../../libDaisy/src/daisy_core.h **** 
 225:../../../libDaisy/src/daisy_core.h **** /** Helper for testing sameness of two dsy_gpio_pins
 226:../../../libDaisy/src/daisy_core.h ****  *  \return    1 if same, 0 if different
 227:../../../libDaisy/src/daisy_core.h ****  * 
 228:../../../libDaisy/src/daisy_core.h ****  *  The dsy_gpio_pin struct should no longer be used, and is only available for
 229:../../../libDaisy/src/daisy_core.h ****  *  backwards compatability.
 230:../../../libDaisy/src/daisy_core.h ****  * 
 231:../../../libDaisy/src/daisy_core.h ****  *  Please use Pin struct instead.
 232:../../../libDaisy/src/daisy_core.h ****  */
 233:../../../libDaisy/src/daisy_core.h **** FORCE_INLINE uint8_t dsy_pin_cmp(dsy_gpio_pin *a, dsy_gpio_pin *b)
 234:../../../libDaisy/src/daisy_core.h **** {
 235:../../../libDaisy/src/daisy_core.h ****     return ((a->port == b->port) && (a->pin == b->pin));
 236:../../../libDaisy/src/daisy_core.h **** }
 237:../../../libDaisy/src/daisy_core.h **** 
 238:../../../libDaisy/src/daisy_core.h **** #ifdef __cplusplus
 239:../../../libDaisy/src/daisy_core.h **** 
 240:../../../libDaisy/src/daisy_core.h **** namespace daisy
 241:../../../libDaisy/src/daisy_core.h **** {
 242:../../../libDaisy/src/daisy_core.h **** /** @brief GPIO Port names */
 243:../../../libDaisy/src/daisy_core.h **** enum GPIOPort
 244:../../../libDaisy/src/daisy_core.h **** {
 245:../../../libDaisy/src/daisy_core.h ****     PORTA, /**< Port A */
 246:../../../libDaisy/src/daisy_core.h ****     PORTB, /**< Port B */
 247:../../../libDaisy/src/daisy_core.h ****     PORTC, /**< Port C */
 248:../../../libDaisy/src/daisy_core.h ****     PORTD, /**< Port D */
 249:../../../libDaisy/src/daisy_core.h ****     PORTE, /**< Port E */
 250:../../../libDaisy/src/daisy_core.h ****     PORTF, /**< Port F */
 251:../../../libDaisy/src/daisy_core.h ****     PORTG, /**< Port G */
 252:../../../libDaisy/src/daisy_core.h ****     PORTH, /**< Port H */
 253:../../../libDaisy/src/daisy_core.h ****     PORTI, /**< Port I */
ARM GAS  /var/folders/yw/6_x9gyn52jjg4jtn_wsryx_80000gp/T//ccNVG2zx.s 			page 20


 254:../../../libDaisy/src/daisy_core.h ****     PORTJ, /**< Port J */
 255:../../../libDaisy/src/daisy_core.h ****     PORTK, /**< Port K */
 256:../../../libDaisy/src/daisy_core.h ****     PORTX, /**< Used as a dummy port to signal an invalid pin. */
 257:../../../libDaisy/src/daisy_core.h **** };
 258:../../../libDaisy/src/daisy_core.h **** 
 259:../../../libDaisy/src/daisy_core.h **** /** @brief representation of hardware port/pin combination */
 260:../../../libDaisy/src/daisy_core.h **** struct Pin
 261:../../../libDaisy/src/daisy_core.h **** {
 262:../../../libDaisy/src/daisy_core.h ****     GPIOPort port;
 263:../../../libDaisy/src/daisy_core.h ****     uint8_t  pin;
 264:../../../libDaisy/src/daisy_core.h **** 
 265:../../../libDaisy/src/daisy_core.h ****     /** @brief Constructor creates a valid pin. 
 266:../../../libDaisy/src/daisy_core.h ****      *  @param pt GPIOPort between PA, and PK corresponding to STM32 Port.
 267:../../../libDaisy/src/daisy_core.h ****      *  @param pn pin number in range of 0-15
 268:../../../libDaisy/src/daisy_core.h ****     */
 269:../../../libDaisy/src/daisy_core.h ****     constexpr Pin(const GPIOPort pt, const uint8_t pn) : port(pt), pin(pn) {}
 270:../../../libDaisy/src/daisy_core.h **** 
 271:../../../libDaisy/src/daisy_core.h ****     /** @brief Basic Constructor creates an invalid Pin object */
 272:../../../libDaisy/src/daisy_core.h ****     constexpr Pin() : port(PORTX), pin(255) {}
 273:../../../libDaisy/src/daisy_core.h **** 
 274:../../../libDaisy/src/daisy_core.h ****     /** @brief checks validity of a Pin 
 275:../../../libDaisy/src/daisy_core.h ****      *  @retval returns true if the port is a valid hardware pin, otherwise false.
 276:../../../libDaisy/src/daisy_core.h ****     */
 277:../../../libDaisy/src/daisy_core.h ****     constexpr bool IsValid() const { return port != PORTX && pin < 16; }
 278:../../../libDaisy/src/daisy_core.h **** 
 279:../../../libDaisy/src/daisy_core.h ****     /** @brief comparison operator for checking equality between Pin objects */
 280:../../../libDaisy/src/daisy_core.h ****     constexpr bool operator==(const Pin &rhs) const
 281:../../../libDaisy/src/daisy_core.h ****     {
 282:../../../libDaisy/src/daisy_core.h ****         return (rhs.port == port) && (rhs.pin == pin);
 283:../../../libDaisy/src/daisy_core.h ****     }
 284:../../../libDaisy/src/daisy_core.h **** 
 285:../../../libDaisy/src/daisy_core.h ****     /** @brief comparison operator for checking inequality between Pin objects */
 286:../../../libDaisy/src/daisy_core.h ****     constexpr bool operator!=(const Pin &rhs) const { return !operator==(rhs); }
 287:../../../libDaisy/src/daisy_core.h **** 
 288:../../../libDaisy/src/daisy_core.h ****     /** @brief conversion operation for converting to the old-style representation
 289:../../../libDaisy/src/daisy_core.h ****      *         of a pin.
 290:../../../libDaisy/src/daisy_core.h ****      * 
 291:../../../libDaisy/src/daisy_core.h ****      *  This allows the new Pin type to be used in place of the older, dsy_gpio_pin
 292:../../../libDaisy/src/daisy_core.h ****      *  type.
 293:../../../libDaisy/src/daisy_core.h ****      */
 294:../../../libDaisy/src/daisy_core.h ****     operator dsy_gpio_pin() const
 294              		.loc 10 294 5 view .LVU70
 295              	.LBE135:
 295:../../../libDaisy/src/daisy_core.h ****     {
 296:../../../libDaisy/src/daisy_core.h ****         return dsy_pin(static_cast<dsy_gpio_port>(port), pin);
 296              		.loc 10 296 9 view .LVU71
 297              	.LBB137:
 298              	.LBB136:
 299              	.LBI136:
 217:../../../libDaisy/src/daisy_core.h **** {
 300              		.loc 10 217 27 view .LVU72
 301              	.LBE136:
 302              	.LBE137:
 219:../../../libDaisy/src/daisy_core.h ****     p.port = port;
 303              		.loc 10 219 5 view .LVU73
 220:../../../libDaisy/src/daisy_core.h ****     p.pin  = pin;
 304              		.loc 10 220 5 view .LVU74
ARM GAS  /var/folders/yw/6_x9gyn52jjg4jtn_wsryx_80000gp/T//ccNVG2zx.s 			page 21


 221:../../../libDaisy/src/daisy_core.h ****     return p;
 305              		.loc 10 221 5 view .LVU75
 222:../../../libDaisy/src/daisy_core.h **** }
 306              		.loc 10 222 5 view .LVU76
 307              		.loc 9 70 26 is_stmt 0 view .LVU77
 308 0084 FFF7FEFF 		bl	_ZN5daisy16AdcChannelConfig10InitSingleE12dsy_gpio_pin
 309              	.LVL12:
  71:adsrWithPots.cpp ****     adc_cfg[1].InitSingle(seed::A1);
 310              		.loc 9 71 5 is_stmt 1 view .LVU78
 311              	.LBB138:
 312              	.LBI138:
 294:../../../libDaisy/src/daisy_core.h ****     {
 313              		.loc 10 294 5 view .LVU79
 314              	.LBE138:
 315              		.loc 10 296 9 view .LVU80
 316              	.LBB140:
 317              	.LBB139:
 318              	.LBI139:
 217:../../../libDaisy/src/daisy_core.h **** {
 319              		.loc 10 217 27 view .LVU81
 320              	.LBE139:
 321              	.LBE140:
 219:../../../libDaisy/src/daisy_core.h ****     p.port = port;
 322              		.loc 10 219 5 view .LVU82
 220:../../../libDaisy/src/daisy_core.h ****     p.pin  = pin;
 323              		.loc 10 220 5 view .LVU83
 221:../../../libDaisy/src/daisy_core.h ****     return p;
 324              		.loc 10 221 5 view .LVU84
 222:../../../libDaisy/src/daisy_core.h **** }
 325              		.loc 10 222 5 view .LVU85
 222:../../../libDaisy/src/daisy_core.h **** }
 326              		.loc 10 222 5 is_stmt 0 view .LVU86
 327 0088 0323     		movs	r3, #3
 328 008a 8DF80870 		strb	r7, [sp, #8]
 329              		.loc 9 71 26 view .LVU87
 330 008e 0DF12500 		add	r0, sp, #37
 331 0092 8DF80930 		strb	r3, [sp, #9]
 332              	.LVL13:
 333              		.loc 9 71 26 view .LVU88
 334 0096 0299     		ldr	r1, [sp, #8]
 335 0098 FFF7FEFF 		bl	_ZN5daisy16AdcChannelConfig10InitSingleE12dsy_gpio_pin
 336              	.LVL14:
  72:adsrWithPots.cpp ****     adc_cfg[2].InitSingle(seed::A2);
 337              		.loc 9 72 5 is_stmt 1 view .LVU89
 338              	.LBB141:
 339              	.LBI141:
 294:../../../libDaisy/src/daisy_core.h ****     {
 340              		.loc 10 294 5 view .LVU90
 341              	.LBE141:
 342              		.loc 10 296 9 view .LVU91
 343              	.LBB143:
 344              	.LBB142:
 345              	.LBI142:
 217:../../../libDaisy/src/daisy_core.h **** {
 346              		.loc 10 217 27 view .LVU92
 347              	.LBE142:
 348              	.LBE143:
ARM GAS  /var/folders/yw/6_x9gyn52jjg4jtn_wsryx_80000gp/T//ccNVG2zx.s 			page 22


 219:../../../libDaisy/src/daisy_core.h ****     p.port = port;
 349              		.loc 10 219 5 view .LVU93
 220:../../../libDaisy/src/daisy_core.h ****     p.pin  = pin;
 350              		.loc 10 220 5 view .LVU94
 221:../../../libDaisy/src/daisy_core.h ****     return p;
 351              		.loc 10 221 5 view .LVU95
 222:../../../libDaisy/src/daisy_core.h **** }
 352              		.loc 10 222 5 view .LVU96
 222:../../../libDaisy/src/daisy_core.h **** }
 353              		.loc 10 222 5 is_stmt 0 view .LVU97
 354 009c 8DF80C60 		strb	r6, [sp, #12]
 355 00a0 8DF80D60 		strb	r6, [sp, #13]
 356              	.LVL15:
 357              		.loc 9 72 26 view .LVU98
 358 00a4 0DF13600 		add	r0, sp, #54
 359 00a8 0399     		ldr	r1, [sp, #12]
 360 00aa FFF7FEFF 		bl	_ZN5daisy16AdcChannelConfig10InitSingleE12dsy_gpio_pin
 361              	.LVL16:
  73:adsrWithPots.cpp ****     adc_cfg[3].InitSingle(seed::A3);
 362              		.loc 9 73 5 is_stmt 1 view .LVU99
 363              	.LBB144:
 364              	.LBI144:
 294:../../../libDaisy/src/daisy_core.h ****     {
 365              		.loc 10 294 5 view .LVU100
 366              	.LBE144:
 367              		.loc 10 296 9 view .LVU101
 368              	.LBB146:
 369              	.LBB145:
 370              	.LBI145:
 217:../../../libDaisy/src/daisy_core.h **** {
 371              		.loc 10 217 27 view .LVU102
 372              	.LBE145:
 373              	.LBE146:
 219:../../../libDaisy/src/daisy_core.h ****     p.port = port;
 374              		.loc 10 219 5 view .LVU103
 220:../../../libDaisy/src/daisy_core.h ****     p.pin  = pin;
 375              		.loc 10 220 5 view .LVU104
 221:../../../libDaisy/src/daisy_core.h ****     return p;
 376              		.loc 10 221 5 view .LVU105
 222:../../../libDaisy/src/daisy_core.h **** }
 377              		.loc 10 222 5 view .LVU106
 222:../../../libDaisy/src/daisy_core.h **** }
 378              		.loc 10 222 5 is_stmt 0 view .LVU107
 379 00ae 0723     		movs	r3, #7
 380 00b0 8DF81070 		strb	r7, [sp, #16]
 381              		.loc 9 73 26 view .LVU108
 382 00b4 0DF14700 		add	r0, sp, #71
 383 00b8 8DF81130 		strb	r3, [sp, #17]
 384              	.LVL17:
 385              	.LBB147:
 386              	.LBB148:
  38:../../../DaisySP/Source/Control/adsr.h ****     /** Initializes the Adsr module.
  39:../../../DaisySP/Source/Control/adsr.h ****         \param sample_rate - The sample rate of the audio engine being run. 
  40:../../../DaisySP/Source/Control/adsr.h ****     */
  41:../../../DaisySP/Source/Control/adsr.h ****     void Init(float sample_rate, int blockSize = 1);
  42:../../../DaisySP/Source/Control/adsr.h ****     /**
  43:../../../DaisySP/Source/Control/adsr.h ****      \function Retrigger forces the envelope back to attack phase
ARM GAS  /var/folders/yw/6_x9gyn52jjg4jtn_wsryx_80000gp/T//ccNVG2zx.s 			page 23


  44:../../../DaisySP/Source/Control/adsr.h ****      \param hard  resets the history to zero, results in a click.
  45:../../../DaisySP/Source/Control/adsr.h ****      */
  46:../../../DaisySP/Source/Control/adsr.h ****     void Retrigger(bool hard);
  47:../../../DaisySP/Source/Control/adsr.h ****     /** Processes one sample through the filter and returns one sample.
  48:../../../DaisySP/Source/Control/adsr.h ****         \param gate - trigger the envelope, hold it to sustain 
  49:../../../DaisySP/Source/Control/adsr.h ****     */
  50:../../../DaisySP/Source/Control/adsr.h ****     float Process(bool gate);
  51:../../../DaisySP/Source/Control/adsr.h ****     /** Sets time
  52:../../../DaisySP/Source/Control/adsr.h ****         Set time per segment in seconds
  53:../../../DaisySP/Source/Control/adsr.h ****     */
  54:../../../DaisySP/Source/Control/adsr.h ****     void SetTime(int seg, float time);
  55:../../../DaisySP/Source/Control/adsr.h ****     void SetAttackTime(float timeInS, float shape = 0.0f);
  56:../../../DaisySP/Source/Control/adsr.h ****     void SetDecayTime(float timeInS);
  57:../../../DaisySP/Source/Control/adsr.h ****     void SetReleaseTime(float timeInS);
  58:../../../DaisySP/Source/Control/adsr.h **** 
  59:../../../DaisySP/Source/Control/adsr.h ****   private:
  60:../../../DaisySP/Source/Control/adsr.h ****     void SetTimeConstant(float timeInS, float& time, float& coeff);
  61:../../../DaisySP/Source/Control/adsr.h **** 
  62:../../../DaisySP/Source/Control/adsr.h ****   public:
  63:../../../DaisySP/Source/Control/adsr.h ****     /** Sustain level
  64:../../../DaisySP/Source/Control/adsr.h ****         \param sus_level - sets sustain level, 0...1.0
  65:../../../DaisySP/Source/Control/adsr.h ****     */
  66:../../../DaisySP/Source/Control/adsr.h ****     inline void SetSustainLevel(float sus_level)
  67:../../../DaisySP/Source/Control/adsr.h ****     {
  68:../../../DaisySP/Source/Control/adsr.h ****         sus_level = (sus_level <= 0.f) ? -0.01f // forces envelope into idle
  69:../../../DaisySP/Source/Control/adsr.h ****                                        : (sus_level > 1.f) ? 1.f : sus_level;
  70:../../../DaisySP/Source/Control/adsr.h ****         sus_level_ = sus_level;
 387              		.loc 1 70 20 view .LVU109
 388 00bc 4FF07A57 		mov	r7, #1048576000
 389              	.LBE148:
 390              	.LBE147:
 391              		.loc 9 73 26 view .LVU110
 392 00c0 0499     		ldr	r1, [sp, #16]
 393 00c2 FFF7FEFF 		bl	_ZN5daisy16AdcChannelConfig10InitSingleE12dsy_gpio_pin
 394              	.LVL18:
  74:adsrWithPots.cpp **** 
  75:adsrWithPots.cpp ****     //Initialize the ADC peripheral with that configuration 4 channels 
  76:adsrWithPots.cpp ****     hw.adc.Init(adc_cfg, 4);
 395              		.loc 9 76 5 is_stmt 1 view .LVU111
 396              		.loc 9 76 16 is_stmt 0 view .LVU112
 397 00c6 0423     		movs	r3, #4
 398 00c8 05A9     		add	r1, sp, #20
 399 00ca 1D48     		ldr	r0, .L9+20
 400 00cc 1A46     		mov	r2, r3
 401 00ce FFF7FEFF 		bl	_ZN5daisy9AdcHandle4InitEPNS_16AdcChannelConfigEjNS0_12OverSamplingE
 402              	.LVL19:
  77:adsrWithPots.cpp **** 
  78:adsrWithPots.cpp ****     /** Start the ADC conversions in the background */
  79:adsrWithPots.cpp ****     hw.adc.Start();
 403              		.loc 9 79 5 is_stmt 1 view .LVU113
 404              		.loc 9 79 17 is_stmt 0 view .LVU114
 405 00d2 1B48     		ldr	r0, .L9+20
 406 00d4 FFF7FEFF 		bl	_ZN5daisy9AdcHandle5StartEv
 407              	.LVL20:
  80:adsrWithPots.cpp **** 
  81:adsrWithPots.cpp ****     // Set up metro to pulse every second
  82:adsrWithPots.cpp ****     tick.Init(1.0f, sample_rate);
ARM GAS  /var/folders/yw/6_x9gyn52jjg4jtn_wsryx_80000gp/T//ccNVG2zx.s 			page 24


 408              		.loc 9 82 5 is_stmt 1 view .LVU115
 409              		.loc 9 82 14 is_stmt 0 view .LVU116
 410 00d8 F0EE480A 		vmov.f32	s1, s16
 411 00dc B0EE680A 		vmov.f32	s0, s17
 412 00e0 1848     		ldr	r0, .L9+24
 413 00e2 FFF7FEFF 		bl	_ZN7daisysp5Metro4InitEff
 414              	.LVL21:
  83:adsrWithPots.cpp **** 
  84:adsrWithPots.cpp ****     //Set envelope parameters
  85:adsrWithPots.cpp ****     env.SetTime(ADSR_SEG_ATTACK, 1);
 415              		.loc 9 85 5 is_stmt 1 view .LVU117
 416              		.loc 9 85 16 is_stmt 0 view .LVU118
 417 00e6 B0EE680A 		vmov.f32	s0, s17
 418 00ea 3146     		mov	r1, r6
 419 00ec 2846     		mov	r0, r5
 420 00ee FFF7FEFF 		bl	_ZN7daisysp4Adsr7SetTimeEif
 421              	.LVL22:
  86:adsrWithPots.cpp ****     env.SetTime(ADSR_SEG_DECAY, .1);
 422              		.loc 9 86 5 is_stmt 1 view .LVU119
 423              		.loc 9 86 16 is_stmt 0 view .LVU120
 424 00f2 9FED150A 		vldr.32	s0, .L9+28
 425 00f6 4146     		mov	r1, r8
 426 00f8 2846     		mov	r0, r5
 427 00fa FFF7FEFF 		bl	_ZN7daisysp4Adsr7SetTimeEif
 428              	.LVL23:
  87:adsrWithPots.cpp ****     env.SetTime(ADSR_SEG_RELEASE, .01);
 429              		.loc 9 87 5 is_stmt 1 view .LVU121
 430              		.loc 9 87 16 is_stmt 0 view .LVU122
 431 00fe 0421     		movs	r1, #4
 432 0100 9FED120A 		vldr.32	s0, .L9+32
 433 0104 2846     		mov	r0, r5
 434 0106 FFF7FEFF 		bl	_ZN7daisysp4Adsr7SetTimeEif
 435              	.LVL24:
  88:adsrWithPots.cpp **** 
  89:adsrWithPots.cpp ****     env.SetSustainLevel(.25);
 436              		.loc 9 89 5 is_stmt 1 view .LVU123
 437              	.LBB151:
 438              	.LBI147:
  66:../../../DaisySP/Source/Control/adsr.h ****     {
 439              		.loc 1 66 17 view .LVU124
 440              	.LBB149:
  68:../../../DaisySP/Source/Control/adsr.h ****                                        : (sus_level > 1.f) ? 1.f : sus_level;
 441              		.loc 1 68 9 view .LVU125
 442              		.loc 1 70 9 view .LVU126
 443              	.LBE149:
 444              	.LBE151:
 445              	.LBB152:
 446              	.LBB153:
  55:../../../DaisySP/Source/Synthesis/oscillator.h ****     }
  56:../../../DaisySP/Source/Synthesis/oscillator.h **** 
  57:../../../DaisySP/Source/Synthesis/oscillator.h **** 
  58:../../../DaisySP/Source/Synthesis/oscillator.h ****     /** Changes the frequency of the Oscillator, and recalculates phase increment.
  59:../../../DaisySP/Source/Synthesis/oscillator.h ****     */
  60:../../../DaisySP/Source/Synthesis/oscillator.h ****     inline void SetFreq(const float f)
  61:../../../DaisySP/Source/Synthesis/oscillator.h ****     {
  62:../../../DaisySP/Source/Synthesis/oscillator.h ****         freq_      = f;
 447              		.loc 2 62 20 is_stmt 0 view .LVU127
ARM GAS  /var/folders/yw/6_x9gyn52jjg4jtn_wsryx_80000gp/T//ccNVG2zx.s 			page 25


 448 010a 9FED110A 		vldr.32	s0, .L9+36
  63:../../../DaisySP/Source/Synthesis/oscillator.h ****         phase_inc_ = CalcPhaseInc(f);
 449              		.loc 2 63 34 view .LVU128
 450 010e 2046     		mov	r0, r4
 451              	.LBE153:
 452              	.LBE152:
 453              	.LBB156:
 454              	.LBB150:
 455              		.loc 1 70 20 view .LVU129
 456 0110 2F60     		str	r7, [r5]	@ float
 457              	.LVL25:
 458              		.loc 1 70 20 view .LVU130
 459              	.LBE150:
 460              	.LBE156:
  90:adsrWithPots.cpp **** 
  91:adsrWithPots.cpp ****     // Set parameters for oscillator
  92:adsrWithPots.cpp ****     osc.SetWaveform(osc.WAVE_TRI);
 461              		.loc 9 92 5 is_stmt 1 view .LVU131
 462              	.LBB157:
 463              	.LBI157:
  64:../../../DaisySP/Source/Synthesis/oscillator.h ****     }
  65:../../../DaisySP/Source/Synthesis/oscillator.h **** 
  66:../../../DaisySP/Source/Synthesis/oscillator.h **** 
  67:../../../DaisySP/Source/Synthesis/oscillator.h ****     /** Sets the amplitude of the waveform.
  68:../../../DaisySP/Source/Synthesis/oscillator.h ****     */
  69:../../../DaisySP/Source/Synthesis/oscillator.h ****     inline void SetAmp(const float a) { amp_ = a; }
  70:../../../DaisySP/Source/Synthesis/oscillator.h ****     /** Sets the waveform to be synthesized by the Process() function.
  71:../../../DaisySP/Source/Synthesis/oscillator.h ****     */
  72:../../../DaisySP/Source/Synthesis/oscillator.h ****     inline void SetWaveform(const uint8_t wf)
 464              		.loc 2 72 17 view .LVU132
 465              	.LBB158:
  73:../../../DaisySP/Source/Synthesis/oscillator.h ****     {
  74:../../../DaisySP/Source/Synthesis/oscillator.h ****         waveform_ = wf < WAVE_LAST ? wf : WAVE_SIN;
 466              		.loc 2 74 9 view .LVU133
 467              		.loc 2 74 19 is_stmt 0 view .LVU134
 468 0112 2670     		strb	r6, [r4]
 469              	.LVL26:
 470              		.loc 2 74 19 view .LVU135
 471              	.LBE158:
 472              	.LBE157:
  93:adsrWithPots.cpp ****     osc.SetFreq(220);
 473              		.loc 9 93 5 is_stmt 1 view .LVU136
 474              	.LBB159:
 475              	.LBI152:
  60:../../../DaisySP/Source/Synthesis/oscillator.h ****     {
 476              		.loc 2 60 17 view .LVU137
 477              	.LBB154:
  62:../../../DaisySP/Source/Synthesis/oscillator.h ****         phase_inc_ = CalcPhaseInc(f);
 478              		.loc 2 62 9 view .LVU138
  62:../../../DaisySP/Source/Synthesis/oscillator.h ****         phase_inc_ = CalcPhaseInc(f);
 479              		.loc 2 62 20 is_stmt 0 view .LVU139
 480 0114 84ED020A 		vstr.32	s0, [r4, #8]
  63:../../../DaisySP/Source/Synthesis/oscillator.h ****     }
 481              		.loc 2 63 9 is_stmt 1 view .LVU140
  63:../../../DaisySP/Source/Synthesis/oscillator.h ****     }
 482              		.loc 2 63 34 is_stmt 0 view .LVU141
 483 0118 FFF7FEFF 		bl	_ZN7daisysp10Oscillator12CalcPhaseIncEf
ARM GAS  /var/folders/yw/6_x9gyn52jjg4jtn_wsryx_80000gp/T//ccNVG2zx.s 			page 26


 484              	.LVL27:
 485              	.LBE154:
 486              	.LBE159:
  94:adsrWithPots.cpp ****     osc.SetAmp(0.25);
  95:adsrWithPots.cpp ****     
  96:adsrWithPots.cpp ****     // start callback
  97:adsrWithPots.cpp ****     hw.StartAudio(AudioCallback);
 487              		.loc 9 97 18 view .LVU142
 488 011c 0D49     		ldr	r1, .L9+40
 489 011e 0348     		ldr	r0, .L9
 490              	.LBB160:
 491              	.LBB161:
  69:../../../DaisySP/Source/Synthesis/oscillator.h ****     /** Sets the waveform to be synthesized by the Process() function.
 492              		.loc 2 69 46 view .LVU143
 493 0120 6760     		str	r7, [r4, #4]	@ float
 494              	.LBE161:
 495              	.LBE160:
 496              	.LBB163:
 497              	.LBB155:
  63:../../../DaisySP/Source/Synthesis/oscillator.h ****     }
 498              		.loc 2 63 20 view .LVU144
 499 0122 84ED080A 		vstr.32	s0, [r4, #32]
 500              	.LVL28:
  63:../../../DaisySP/Source/Synthesis/oscillator.h ****     }
 501              		.loc 2 63 20 view .LVU145
 502              	.LBE155:
 503              	.LBE163:
  94:adsrWithPots.cpp ****     osc.SetAmp(0.25);
 504              		.loc 9 94 5 is_stmt 1 view .LVU146
 505              	.LBB164:
 506              	.LBI160:
  69:../../../DaisySP/Source/Synthesis/oscillator.h ****     /** Sets the waveform to be synthesized by the Process() function.
 507              		.loc 2 69 17 view .LVU147
 508              	.LBB162:
  69:../../../DaisySP/Source/Synthesis/oscillator.h ****     /** Sets the waveform to be synthesized by the Process() function.
 509              		.loc 2 69 41 view .LVU148
  69:../../../DaisySP/Source/Synthesis/oscillator.h ****     /** Sets the waveform to be synthesized by the Process() function.
 510              		.loc 2 69 41 is_stmt 0 view .LVU149
 511              	.LBE162:
 512              	.LBE164:
 513              		.loc 9 97 5 is_stmt 1 view .LVU150
 514              		.loc 9 97 18 is_stmt 0 view .LVU151
 515 0126 FFF7FEFF 		bl	_ZN5daisy9DaisySeed10StartAudioEPFvPKfPfjE
 516              	.LVL29:
 517              	.L7:
  98:adsrWithPots.cpp **** 
  99:adsrWithPots.cpp ****     while(1) 
 518              		.loc 9 99 5 is_stmt 1 discriminator 1 view .LVU152
 519              		.loc 9 99 5 discriminator 1 view .LVU153
 520              		.loc 9 99 5 discriminator 1 view .LVU154
 521              		.loc 9 99 5 discriminator 1 view .LVU155
 522 012a FEE7     		b	.L7
 523              	.L10:
 524              		.align	2
 525              	.L9:
 526 012c 00000000 		.word	.LANCHOR0
 527 0130 00000000 		.word	.LANCHOR1
ARM GAS  /var/folders/yw/6_x9gyn52jjg4jtn_wsryx_80000gp/T//ccNVG2zx.s 			page 27


 528 0134 00000000 		.word	.LANCHOR2
 529 0138 DB0F4940 		.word	1078530011
 530 013c 0000C842 		.word	1120403456
 531 0140 18000000 		.word	.LANCHOR0+24
 532 0144 00000000 		.word	.LANCHOR3
 533 0148 CDCCCC3D 		.word	1036831949
 534 014c 0AD7233C 		.word	1008981770
 535 0150 00005C43 		.word	1130102784
 536 0154 00000000 		.word	_ZL13AudioCallbackPKfPfj
 537              		.cfi_endproc
 538              	.LFE4790:
 540              		.section	.text._Z13setadsrValuesv,"ax",%progbits
 541              		.align	1
 542              		.p2align 2,,3
 543              		.global	_Z13setadsrValuesv
 544              		.syntax unified
 545              		.thumb
 546              		.thumb_func
 548              	_Z13setadsrValuesv:
 549              	.LFB4791:
 100:adsrWithPots.cpp ****     {
 101:adsrWithPots.cpp ****     }
 102:adsrWithPots.cpp **** }
 103:adsrWithPots.cpp **** 	
 104:adsrWithPots.cpp **** // function defs 
 105:adsrWithPots.cpp **** void setadsrValues()
 106:adsrWithPots.cpp **** 	{
 550              		.loc 9 106 2 view -0
 551              		.cfi_startproc
 552              		@ args = 0, pretend = 0, frame = 0
 553              		@ frame_needed = 0, uses_anonymous_args = 0
 107:adsrWithPots.cpp **** 		adsrValues[0] = hw.adc.GetFloat(0) * maxAttack; // Attack 1 seconds 
 554              		.loc 9 107 3 view .LVU157
 106:adsrWithPots.cpp **** 		adsrValues[0] = hw.adc.GetFloat(0) * maxAttack; // Attack 1 seconds 
 555              		.loc 9 106 2 is_stmt 0 view .LVU158
 556 0000 10B5     		push	{r4, lr}
 557              		.cfi_def_cfa_offset 8
 558              		.cfi_offset 4, -8
 559              		.cfi_offset 14, -4
 560              		.loc 9 107 34 view .LVU159
 561 0002 0021     		movs	r1, #0
 562              		.loc 9 107 17 view .LVU160
 563 0004 254C     		ldr	r4, .L16
 564              		.loc 9 107 34 view .LVU161
 565 0006 2648     		ldr	r0, .L16+4
 566 0008 FFF7FEFF 		bl	_ZNK5daisy9AdcHandle8GetFloatEh
 567              	.LVL30:
 108:adsrWithPots.cpp **** 		adsrValues[1] = hw.adc.GetFloat(1) * maxDecay; // Decay 2 seconds 
 568              		.loc 9 108 34 view .LVU162
 569 000c 0121     		movs	r1, #1
 570 000e 2448     		ldr	r0, .L16+4
 107:adsrWithPots.cpp **** 		adsrValues[0] = hw.adc.GetFloat(0) * maxAttack; // Attack 1 seconds 
 571              		.loc 9 107 17 view .LVU163
 572 0010 84ED000A 		vstr.32	s0, [r4]
 573              		.loc 9 108 3 is_stmt 1 view .LVU164
 574              		.loc 9 108 34 is_stmt 0 view .LVU165
 575 0014 FFF7FEFF 		bl	_ZNK5daisy9AdcHandle8GetFloatEh
ARM GAS  /var/folders/yw/6_x9gyn52jjg4jtn_wsryx_80000gp/T//ccNVG2zx.s 			page 28


 576              	.LVL31:
 577              		.loc 9 108 38 view .LVU166
 578 0018 30EE000A 		vadd.f32	s0, s0, s0
 109:adsrWithPots.cpp **** 		adsrValues[2] = hw.adc.GetFloat(2) * maxSustain; // Sustain
 579              		.loc 9 109 34 view .LVU167
 580 001c 0221     		movs	r1, #2
 581 001e 2048     		ldr	r0, .L16+4
 108:adsrWithPots.cpp **** 		adsrValues[1] = hw.adc.GetFloat(1) * maxDecay; // Decay 2 seconds 
 582              		.loc 9 108 17 view .LVU168
 583 0020 84ED010A 		vstr.32	s0, [r4, #4]
 584              		.loc 9 109 3 is_stmt 1 view .LVU169
 585              		.loc 9 109 34 is_stmt 0 view .LVU170
 586 0024 FFF7FEFF 		bl	_ZNK5daisy9AdcHandle8GetFloatEh
 587              	.LVL32:
 110:adsrWithPots.cpp **** 		adsrValues[3] = hw.adc.GetFloat(3) * maxRelease; // Release 5 seconds
 588              		.loc 9 110 34 view .LVU171
 589 0028 0321     		movs	r1, #3
 590 002a 1D48     		ldr	r0, .L16+4
 109:adsrWithPots.cpp **** 		adsrValues[2] = hw.adc.GetFloat(2) * maxSustain; // Sustain
 591              		.loc 9 109 17 view .LVU172
 592 002c 84ED020A 		vstr.32	s0, [r4, #8]
 593              		.loc 9 110 3 is_stmt 1 view .LVU173
 594              		.loc 9 110 34 is_stmt 0 view .LVU174
 595 0030 FFF7FEFF 		bl	_ZNK5daisy9AdcHandle8GetFloatEh
 596              	.LVL33:
 597              		.loc 9 110 38 view .LVU175
 598 0034 B1EE047A 		vmov.f32	s14, #5.0e+0
 111:adsrWithPots.cpp **** 
 112:adsrWithPots.cpp **** 		env.SetTime(ADSR_SEG_ATTACK, adsrValues[0]);
 599              		.loc 9 112 14 view .LVU176
 600 0038 0121     		movs	r1, #1
 110:adsrWithPots.cpp **** 		adsrValues[3] = hw.adc.GetFloat(3) * maxRelease; // Release 5 seconds
 601              		.loc 9 110 34 view .LVU177
 602 003a F0EE407A 		vmov.f32	s15, s0
 603              		.loc 9 112 14 view .LVU178
 604 003e 1948     		ldr	r0, .L16+8
 605 0040 94ED000A 		vldr.32	s0, [r4]
 110:adsrWithPots.cpp **** 		adsrValues[3] = hw.adc.GetFloat(3) * maxRelease; // Release 5 seconds
 606              		.loc 9 110 38 view .LVU179
 607 0044 67EE877A 		vmul.f32	s15, s15, s14
 110:adsrWithPots.cpp **** 		adsrValues[3] = hw.adc.GetFloat(3) * maxRelease; // Release 5 seconds
 608              		.loc 9 110 17 view .LVU180
 609 0048 C4ED037A 		vstr.32	s15, [r4, #12]
 610              		.loc 9 112 3 is_stmt 1 view .LVU181
 611              		.loc 9 112 14 is_stmt 0 view .LVU182
 612 004c FFF7FEFF 		bl	_ZN7daisysp4Adsr7SetTimeEif
 613              	.LVL34:
 113:adsrWithPots.cpp ****         env.SetTime(ADSR_SEG_DECAY, adsrValues[1]);
 614              		.loc 9 113 9 is_stmt 1 view .LVU183
 615              		.loc 9 113 20 is_stmt 0 view .LVU184
 616 0050 94ED010A 		vldr.32	s0, [r4, #4]
 617 0054 0221     		movs	r1, #2
 618 0056 1348     		ldr	r0, .L16+8
 619 0058 FFF7FEFF 		bl	_ZN7daisysp4Adsr7SetTimeEif
 620              	.LVL35:
 114:adsrWithPots.cpp ****         env.SetTime(ADSR_SEG_RELEASE, adsrValues[2]);
 621              		.loc 9 114 9 is_stmt 1 view .LVU185
ARM GAS  /var/folders/yw/6_x9gyn52jjg4jtn_wsryx_80000gp/T//ccNVG2zx.s 			page 29


 622              		.loc 9 114 20 is_stmt 0 view .LVU186
 623 005c 94ED020A 		vldr.32	s0, [r4, #8]
 624 0060 0421     		movs	r1, #4
 625 0062 1048     		ldr	r0, .L16+8
 626 0064 FFF7FEFF 		bl	_ZN7daisysp4Adsr7SetTimeEif
 627              	.LVL36:
 115:adsrWithPots.cpp ****         env.SetSustainLevel(adsrValues[3]);
 628              		.loc 9 115 9 is_stmt 1 view .LVU187
 629              		.loc 9 115 28 is_stmt 0 view .LVU188
 630 0068 D4ED037A 		vldr.32	s15, [r4, #12]
 631              	.LVL37:
 632              	.LBB165:
 633              	.LBI165:
  66:../../../DaisySP/Source/Control/adsr.h ****     {
 634              		.loc 1 66 17 is_stmt 1 view .LVU189
 635              	.LBB166:
  68:../../../DaisySP/Source/Control/adsr.h ****                                        : (sus_level > 1.f) ? 1.f : sus_level;
 636              		.loc 1 68 9 view .LVU190
  68:../../../DaisySP/Source/Control/adsr.h ****                                        : (sus_level > 1.f) ? 1.f : sus_level;
 637              		.loc 1 68 40 is_stmt 0 view .LVU191
 638 006c F5EEC07A 		vcmpe.f32	s15, #0
 639 0070 F1EE10FA 		vmrs	APSR_nzcv, FPSCR
 640 0074 0BD9     		bls	.L13
  69:../../../DaisySP/Source/Control/adsr.h ****         sus_level_ = sus_level;
 641              		.loc 1 69 60 view .LVU192
 642 0076 B7EE007A 		vmov.f32	s14, #1.0e+0
 643              		.loc 1 70 20 view .LVU193
 644 007a 0A4B     		ldr	r3, .L16+8
  69:../../../DaisySP/Source/Control/adsr.h ****         sus_level_ = sus_level;
 645              		.loc 1 69 60 view .LVU194
 646 007c F4EE477A 		vcmp.f32	s15, s14
 647 0080 F1EE10FA 		vmrs	APSR_nzcv, FPSCR
 648 0084 77FE277A 		vselgt.f32	s15, s14, s15
 649              	.LVL38:
 650              		.loc 1 70 9 is_stmt 1 view .LVU195
 651              		.loc 1 70 20 is_stmt 0 view .LVU196
 652 0088 C3ED007A 		vstr.32	s15, [r3]
 653              	.LVL39:
 654              		.loc 1 70 20 view .LVU197
 655              	.LBE166:
 656              	.LBE165:
 116:adsrWithPots.cpp **** 	}
 657              		.loc 9 116 2 view .LVU198
 658 008c 10BD     		pop	{r4, pc}
 659              	.LVL40:
 660              	.L13:
 661              	.LBB168:
 662              	.LBB167:
  68:../../../DaisySP/Source/Control/adsr.h ****                                        : (sus_level > 1.f) ? 1.f : sus_level;
 663              		.loc 1 68 40 view .LVU199
 664 008e DFED067A 		vldr.32	s15, .L16+12
 665              	.LVL41:
 666              		.loc 1 70 9 is_stmt 1 view .LVU200
 667              		.loc 1 70 20 is_stmt 0 view .LVU201
 668 0092 044B     		ldr	r3, .L16+8
 669 0094 C3ED007A 		vstr.32	s15, [r3]
 670              	.LVL42:
ARM GAS  /var/folders/yw/6_x9gyn52jjg4jtn_wsryx_80000gp/T//ccNVG2zx.s 			page 30


 671              		.loc 1 70 20 view .LVU202
 672              	.LBE167:
 673              	.LBE168:
 674              		.loc 9 116 2 view .LVU203
 675 0098 10BD     		pop	{r4, pc}
 676              	.L17:
 677 009a 00BF     		.align	2
 678              	.L16:
 679 009c 00000000 		.word	.LANCHOR4
 680 00a0 18000000 		.word	.LANCHOR0+24
 681 00a4 00000000 		.word	.LANCHOR1
 682 00a8 0AD723BC 		.word	-1138501878
 683              		.cfi_endproc
 684              	.LFE4791:
 686              		.section	.text._ZL13AudioCallbackPKfPfj,"ax",%progbits
 687              		.align	1
 688              		.p2align 2,,3
 689              		.syntax unified
 690              		.thumb
 691              		.thumb_func
 693              	_ZL13AudioCallbackPKfPfj:
 694              	.LVL43:
 695              	.LFB4789:
  35:adsrWithPots.cpp **** 	setadsrValues();
 696              		.loc 9 35 1 is_stmt 1 view -0
 697              		.cfi_startproc
 698              		@ args = 0, pretend = 0, frame = 0
 699              		@ frame_needed = 0, uses_anonymous_args = 0
  36:adsrWithPots.cpp **** 	
 700              		.loc 9 36 2 view .LVU205
  35:adsrWithPots.cpp **** 	setadsrValues();
 701              		.loc 9 35 1 is_stmt 0 view .LVU206
 702 0000 2DE9F041 		push	{r4, r5, r6, r7, r8, lr}
 703              		.cfi_def_cfa_offset 24
 704              		.cfi_offset 4, -24
 705              		.cfi_offset 5, -20
 706              		.cfi_offset 6, -16
 707              		.cfi_offset 7, -12
 708              		.cfi_offset 8, -8
 709              		.cfi_offset 14, -4
  35:adsrWithPots.cpp **** 	setadsrValues();
 710              		.loc 9 35 1 view .LVU207
 711 0004 1646     		mov	r6, r2
 712 0006 0C46     		mov	r4, r1
  36:adsrWithPots.cpp **** 	
 713              		.loc 9 36 15 view .LVU208
 714 0008 FFF7FEFF 		bl	_Z13setadsrValuesv
 715              	.LVL44:
  38:adsrWithPots.cpp ****     for(size_t i = 0; i < size; i += 2)
 716              		.loc 9 38 2 is_stmt 1 view .LVU209
  39:adsrWithPots.cpp ****     {
 717              		.loc 9 39 5 view .LVU210
 718              	.LBB169:
  39:adsrWithPots.cpp ****     {
 719              		.loc 9 39 25 view .LVU211
 720 000c F6B1     		cbz	r6, .L18
 721 000e 013E     		subs	r6, r6, #1
ARM GAS  /var/folders/yw/6_x9gyn52jjg4jtn_wsryx_80000gp/T//ccNVG2zx.s 			page 31


 722              	.LVL45:
  39:adsrWithPots.cpp ****     {
 723              		.loc 9 39 25 is_stmt 0 view .LVU212
 724 0010 0025     		movs	r5, #0
 725 0012 0F4F     		ldr	r7, .L25
 726 0014 7608     		lsrs	r6, r6, #1
 727              	.LVL46:
  39:adsrWithPots.cpp ****     {
 728              		.loc 9 39 25 view .LVU213
 729 0016 DFF84480 		ldr	r8, .L25+12
 730              	.LVL47:
 731              	.L23:
  42:adsrWithPots.cpp ****         {
 732              		.loc 9 42 9 is_stmt 1 view .LVU214
  42:adsrWithPots.cpp ****         {
 733              		.loc 9 42 24 is_stmt 0 view .LVU215
 734 001a 0E48     		ldr	r0, .L25+4
 735 001c FFF7FEFF 		bl	_ZN7daisysp5Metro7ProcessEv
 736              	.LVL48:
  44:adsrWithPots.cpp ****         }
 737              		.loc 9 44 13 is_stmt 1 view .LVU216
  44:adsrWithPots.cpp ****         }
 738              		.loc 9 44 20 is_stmt 0 view .LVU217
 739 0020 3978     		ldrb	r1, [r7]	@ zero_extendqisi2
  42:adsrWithPots.cpp ****         {
 740              		.loc 9 42 9 view .LVU218
 741 0022 10B1     		cbz	r0, .L21
  44:adsrWithPots.cpp ****         }
 742              		.loc 9 44 20 view .LVU219
 743 0024 81F00101 		eor	r1, r1, #1
  44:adsrWithPots.cpp ****         }
 744              		.loc 9 44 18 view .LVU220
 745 0028 3970     		strb	r1, [r7]
 746              	.L21:
  48:adsrWithPots.cpp ****         osc.SetAmp(env_out);
 747              		.loc 9 48 3 is_stmt 1 discriminator 2 view .LVU221
  48:adsrWithPots.cpp ****         osc.SetAmp(env_out);
 748              		.loc 9 48 24 is_stmt 0 discriminator 2 view .LVU222
 749 002a 0B48     		ldr	r0, .L25+8
  39:adsrWithPots.cpp ****     {
 750              		.loc 9 39 25 discriminator 2 view .LVU223
 751 002c 0834     		adds	r4, r4, #8
  48:adsrWithPots.cpp ****         osc.SetAmp(env_out);
 752              		.loc 9 48 24 discriminator 2 view .LVU224
 753 002e FFF7FEFF 		bl	_ZN7daisysp4Adsr7ProcessEb
 754              	.LVL49:
  49:adsrWithPots.cpp ****         osc_out = osc.Process();
 755              		.loc 9 49 9 is_stmt 1 discriminator 2 view .LVU225
 756              	.LBB170:
 757              	.LBI170:
  69:../../../DaisySP/Source/Synthesis/oscillator.h ****     /** Sets the waveform to be synthesized by the Process() function.
 758              		.loc 2 69 17 discriminator 2 view .LVU226
 759              	.LBB171:
  69:../../../DaisySP/Source/Synthesis/oscillator.h ****     /** Sets the waveform to be synthesized by the Process() function.
 760              		.loc 2 69 41 discriminator 2 view .LVU227
 761              	.LBE171:
 762              	.LBE170:
ARM GAS  /var/folders/yw/6_x9gyn52jjg4jtn_wsryx_80000gp/T//ccNVG2zx.s 			page 32


  50:adsrWithPots.cpp **** 
 763              		.loc 9 50 30 is_stmt 0 discriminator 2 view .LVU228
 764 0032 0A48     		ldr	r0, .L25+12
 765              	.LBB173:
 766              	.LBB172:
  69:../../../DaisySP/Source/Synthesis/oscillator.h ****     /** Sets the waveform to be synthesized by the Process() function.
 767              		.loc 2 69 46 discriminator 2 view .LVU229
 768 0034 88ED010A 		vstr.32	s0, [r8, #4]
 769              	.LVL50:
  69:../../../DaisySP/Source/Synthesis/oscillator.h ****     /** Sets the waveform to be synthesized by the Process() function.
 770              		.loc 2 69 46 discriminator 2 view .LVU230
 771              	.LBE172:
 772              	.LBE173:
  50:adsrWithPots.cpp **** 
 773              		.loc 9 50 9 is_stmt 1 discriminator 2 view .LVU231
  50:adsrWithPots.cpp **** 
 774              		.loc 9 50 30 is_stmt 0 discriminator 2 view .LVU232
 775 0038 FFF7FEFF 		bl	_ZN7daisysp10Oscillator7ProcessEv
 776              	.LVL51:
  39:adsrWithPots.cpp ****     {
 777              		.loc 9 39 25 discriminator 2 view .LVU233
 778 003c 6B1C     		adds	r3, r5, #1
 779              	.LVL52:
  52:adsrWithPots.cpp ****         out[RIGHT] = osc_out;
 780              		.loc 9 52 9 is_stmt 1 discriminator 2 view .LVU234
  39:adsrWithPots.cpp ****     {
 781              		.loc 9 39 25 is_stmt 0 discriminator 2 view .LVU235
 782 003e AE42     		cmp	r6, r5
  52:adsrWithPots.cpp ****         out[RIGHT] = osc_out;
 783              		.loc 9 52 20 discriminator 2 view .LVU236
 784 0040 04ED020A 		vstr.32	s0, [r4, #-8]
  53:adsrWithPots.cpp ****     }
 785              		.loc 9 53 9 is_stmt 1 discriminator 2 view .LVU237
 786 0044 1D46     		mov	r5, r3
 787              	.LVL53:
  53:adsrWithPots.cpp ****     }
 788              		.loc 9 53 20 is_stmt 0 discriminator 2 view .LVU238
 789 0046 04ED010A 		vstr.32	s0, [r4, #-4]
  39:adsrWithPots.cpp ****     {
 790              		.loc 9 39 5 is_stmt 1 discriminator 2 view .LVU239
 791              	.LVL54:
  39:adsrWithPots.cpp ****     {
 792              		.loc 9 39 25 discriminator 2 view .LVU240
 793 004a E6D1     		bne	.L23
 794              	.LVL55:
 795              	.L18:
  39:adsrWithPots.cpp ****     {
 796              		.loc 9 39 25 is_stmt 0 discriminator 2 view .LVU241
 797              	.LBE169:
  55:adsrWithPots.cpp **** 
 798              		.loc 9 55 1 view .LVU242
 799 004c BDE8F081 		pop	{r4, r5, r6, r7, r8, pc}
 800              	.L26:
 801              		.align	2
 802              	.L25:
 803 0050 00000000 		.word	.LANCHOR5
 804 0054 00000000 		.word	.LANCHOR3
ARM GAS  /var/folders/yw/6_x9gyn52jjg4jtn_wsryx_80000gp/T//ccNVG2zx.s 			page 33


 805 0058 00000000 		.word	.LANCHOR1
 806 005c 00000000 		.word	.LANCHOR2
 807              		.cfi_endproc
 808              	.LFE4789:
 810              		.section	.text.startup._GLOBAL__sub_I_adsrValues,"ax",%progbits
 811              		.align	1
 812              		.p2align 2,,3
 813              		.syntax unified
 814              		.thumb
 815              		.thumb_func
 817              	_GLOBAL__sub_I_adsrValues:
 818              	.LFB5351:
 819              		.loc 9 116 2 is_stmt 1 view -0
 820              		.cfi_startproc
 821              		@ args = 0, pretend = 0, frame = 0
 822              		@ frame_needed = 0, uses_anonymous_args = 0
 823              	.LBB199:
 824              	.LBI199:
 825              		.loc 9 116 2 view .LVU244
 826              	.LVL56:
 827              	.LBB200:
 828              	.LBB201:
 829              	.LBI201:
  21:../../../libDaisy/src/daisy_seed.h ****     ~DaisySeed() {}
 830              		.loc 4 21 5 view .LVU245
 831              	.LBB202:
 832              	.LBB203:
 833              	.LBI203:
 834              		.file 11 "../../../libDaisy/src/per/qspi.h"
   1:../../../libDaisy/src/per/qspi.h **** #ifndef DSY_QSPI
   2:../../../libDaisy/src/per/qspi.h **** #define DSY_QSPI /**< Macro */
   3:../../../libDaisy/src/per/qspi.h **** 
   4:../../../libDaisy/src/per/qspi.h **** #ifndef UNIT_TEST // for unit tests, a dummy implementation
   5:../../../libDaisy/src/per/qspi.h **** 
   6:../../../libDaisy/src/per/qspi.h **** #include <cstdint>
   7:../../../libDaisy/src/per/qspi.h **** #include "daisy_core.h" // Added for dsy_gpio_pin typedef
   8:../../../libDaisy/src/per/qspi.h **** 
   9:../../../libDaisy/src/per/qspi.h **** #define DSY_QSPI_TEXT       \
  10:../../../libDaisy/src/per/qspi.h ****     __attribute__((section( \
  11:../../../libDaisy/src/per/qspi.h ****         ".qspiflash_text"))) /**< used for reading memory in memory_mapped mode. */
  12:../../../libDaisy/src/per/qspi.h **** #define DSY_QSPI_DATA       \
  13:../../../libDaisy/src/per/qspi.h ****     __attribute__((section( \
  14:../../../libDaisy/src/per/qspi.h ****         ".qspiflash_data"))) /**< used for reading memory in memory_mapped mode. */
  15:../../../libDaisy/src/per/qspi.h **** #define DSY_QSPI_BSS        \
  16:../../../libDaisy/src/per/qspi.h ****     __attribute__((section( \
  17:../../../libDaisy/src/per/qspi.h ****         ".qspiflash_bss"))) /**< used for reading memory in memory_mapped mode. */
  18:../../../libDaisy/src/per/qspi.h **** 
  19:../../../libDaisy/src/per/qspi.h **** namespace daisy
  20:../../../libDaisy/src/per/qspi.h **** {
  21:../../../libDaisy/src/per/qspi.h **** /** @addtogroup serial
  22:../../../libDaisy/src/per/qspi.h **** @{
  23:../../../libDaisy/src/per/qspi.h **** */
  24:../../../libDaisy/src/per/qspi.h **** 
  25:../../../libDaisy/src/per/qspi.h **** /** 
  26:../../../libDaisy/src/per/qspi.h ****  Driver for QSPI peripheral to interface with external flash memory. \n 
  27:../../../libDaisy/src/per/qspi.h ****     Currently supported QSPI Devices: \n 
  28:../../../libDaisy/src/per/qspi.h ****     * IS25LP080D
ARM GAS  /var/folders/yw/6_x9gyn52jjg4jtn_wsryx_80000gp/T//ccNVG2zx.s 			page 34


  29:../../../libDaisy/src/per/qspi.h **** */
  30:../../../libDaisy/src/per/qspi.h **** class QSPIHandle
  31:../../../libDaisy/src/per/qspi.h **** {
  32:../../../libDaisy/src/per/qspi.h ****   public:
  33:../../../libDaisy/src/per/qspi.h ****     enum Result
  34:../../../libDaisy/src/per/qspi.h ****     {
  35:../../../libDaisy/src/per/qspi.h ****         OK = 0,
  36:../../../libDaisy/src/per/qspi.h ****         ERR
  37:../../../libDaisy/src/per/qspi.h ****     };
  38:../../../libDaisy/src/per/qspi.h **** 
  39:../../../libDaisy/src/per/qspi.h ****     /** Indicates the current status of the module. 
  40:../../../libDaisy/src/per/qspi.h ****          *  Warnings are indicated by a leading W.
  41:../../../libDaisy/src/per/qspi.h ****          *  Errors are indicated by a leading E and cause an immediate exit.
  42:../../../libDaisy/src/per/qspi.h ****          * 
  43:../../../libDaisy/src/per/qspi.h ****          *  \param GOOD - No errors have been reported.
  44:../../../libDaisy/src/per/qspi.h ****          *  \param E_HAL_ERROR - HAL code did not return HAL_OK.
  45:../../../libDaisy/src/per/qspi.h ****          *  \param E_SWITCHING_MODES - An error was encountered while switching QSPI peripheral mod
  46:../../../libDaisy/src/per/qspi.h ****          *  \param E_INVALID_MODE - QSPI should not be written to while the program is executing fr
  47:../../../libDaisy/src/per/qspi.h ****          */
  48:../../../libDaisy/src/per/qspi.h ****     enum Status
  49:../../../libDaisy/src/per/qspi.h ****     {
  50:../../../libDaisy/src/per/qspi.h ****         GOOD = 0,
  51:../../../libDaisy/src/per/qspi.h ****         E_HAL_ERROR,
  52:../../../libDaisy/src/per/qspi.h ****         E_SWITCHING_MODES,
  53:../../../libDaisy/src/per/qspi.h ****         E_INVALID_MODE,
  54:../../../libDaisy/src/per/qspi.h ****     };
  55:../../../libDaisy/src/per/qspi.h **** 
  56:../../../libDaisy/src/per/qspi.h ****     /** Configuration structure for interfacing with QSPI Driver */
  57:../../../libDaisy/src/per/qspi.h ****     struct Config
  58:../../../libDaisy/src/per/qspi.h ****     {
  59:../../../libDaisy/src/per/qspi.h ****         /** Flash Devices supported. (Both of these are more-or-less the same, just different sizes
  60:../../../libDaisy/src/per/qspi.h ****         enum Device
  61:../../../libDaisy/src/per/qspi.h ****         {
  62:../../../libDaisy/src/per/qspi.h ****             IS25LP080D,  /**< & */
  63:../../../libDaisy/src/per/qspi.h ****             IS25LP064A,  /**< & */
  64:../../../libDaisy/src/per/qspi.h ****             DEVICE_LAST, /**< & */
  65:../../../libDaisy/src/per/qspi.h ****         };
  66:../../../libDaisy/src/per/qspi.h **** 
  67:../../../libDaisy/src/per/qspi.h ****         /** 
  68:../../../libDaisy/src/per/qspi.h ****         Modes of operation.
  69:../../../libDaisy/src/per/qspi.h ****         Memory Mapped mode: QSPI configured so that the QSPI can be
  70:../../../libDaisy/src/per/qspi.h ****         read from starting address 0x90000000. Writing is not
  71:../../../libDaisy/src/per/qspi.h ****         possible in this mode. \n 
  72:../../../libDaisy/src/per/qspi.h ****         Indirect Polling mode: Device driver enabled. 
  73:../../../libDaisy/src/per/qspi.h ****         */
  74:../../../libDaisy/src/per/qspi.h ****         enum Mode
  75:../../../libDaisy/src/per/qspi.h ****         {
  76:../../../libDaisy/src/per/qspi.h ****             MEMORY_MAPPED,    /**< & */
  77:../../../libDaisy/src/per/qspi.h ****             INDIRECT_POLLING, /**< & */
  78:../../../libDaisy/src/per/qspi.h ****             MODE_LAST,
  79:../../../libDaisy/src/per/qspi.h ****         };
  80:../../../libDaisy/src/per/qspi.h **** 
  81:../../../libDaisy/src/per/qspi.h ****         //SCK,  CE# (active low)
  82:../../../libDaisy/src/per/qspi.h ****         struct
  83:../../../libDaisy/src/per/qspi.h ****         {
  84:../../../libDaisy/src/per/qspi.h ****             dsy_gpio_pin io0; /**< & */
  85:../../../libDaisy/src/per/qspi.h ****             dsy_gpio_pin io1; /**< & */
ARM GAS  /var/folders/yw/6_x9gyn52jjg4jtn_wsryx_80000gp/T//ccNVG2zx.s 			page 35


  86:../../../libDaisy/src/per/qspi.h ****             dsy_gpio_pin io2; /**< & */
  87:../../../libDaisy/src/per/qspi.h ****             dsy_gpio_pin io3; /**< & */
  88:../../../libDaisy/src/per/qspi.h ****             dsy_gpio_pin clk; /**< & */
  89:../../../libDaisy/src/per/qspi.h ****             dsy_gpio_pin ncs; /**< & */
  90:../../../libDaisy/src/per/qspi.h ****         } pin_config;
  91:../../../libDaisy/src/per/qspi.h **** 
  92:../../../libDaisy/src/per/qspi.h ****         Device device;
  93:../../../libDaisy/src/per/qspi.h ****         Mode   mode;
  94:../../../libDaisy/src/per/qspi.h ****     };
  95:../../../libDaisy/src/per/qspi.h **** 
  96:../../../libDaisy/src/per/qspi.h ****     /** 
  97:../../../libDaisy/src/per/qspi.h ****         Initializes QSPI peripheral, and Resets, and prepares memory for access.
  98:../../../libDaisy/src/per/qspi.h ****         \param config should be populated with the mode, device and pin_config before calling this 
  99:../../../libDaisy/src/per/qspi.h ****         \return Result::OK or Result::ERR
 100:../../../libDaisy/src/per/qspi.h ****         */
 101:../../../libDaisy/src/per/qspi.h ****     Result Init(const Config& config);
 102:../../../libDaisy/src/per/qspi.h **** 
 103:../../../libDaisy/src/per/qspi.h ****     /** Returns the current config. */
 104:../../../libDaisy/src/per/qspi.h ****     const Config& GetConfig() const;
 105:../../../libDaisy/src/per/qspi.h **** 
 106:../../../libDaisy/src/per/qspi.h ****     // Couldn't this just be called before anything else in init? That
 107:../../../libDaisy/src/per/qspi.h ****     // would make manually calling it unnecessary.
 108:../../../libDaisy/src/per/qspi.h ****     /** 
 109:../../../libDaisy/src/per/qspi.h ****         Deinitializes the peripheral
 110:../../../libDaisy/src/per/qspi.h ****         This should be called before reinitializing QSPI in a different mode.
 111:../../../libDaisy/src/per/qspi.h ****         \return Result::OK or Result::ERR
 112:../../../libDaisy/src/per/qspi.h ****         */
 113:../../../libDaisy/src/per/qspi.h ****     Result DeInit();
 114:../../../libDaisy/src/per/qspi.h **** 
 115:../../../libDaisy/src/per/qspi.h ****     /** 
 116:../../../libDaisy/src/per/qspi.h ****         Writes a single page to to the specified address on the QSPI chip.
 117:../../../libDaisy/src/per/qspi.h ****         For IS25LP*, page size is 256 bytes.
 118:../../../libDaisy/src/per/qspi.h ****         \param address Address to write to
 119:../../../libDaisy/src/per/qspi.h ****         \param size Buffer size
 120:../../../libDaisy/src/per/qspi.h ****         \param buffer Buffer to write
 121:../../../libDaisy/src/per/qspi.h ****         \return Result::OK or Result::ERR
 122:../../../libDaisy/src/per/qspi.h ****         */
 123:../../../libDaisy/src/per/qspi.h ****     Result WritePage(uint32_t address, uint32_t size, uint8_t* buffer);
 124:../../../libDaisy/src/per/qspi.h **** 
 125:../../../libDaisy/src/per/qspi.h ****     /** 
 126:../../../libDaisy/src/per/qspi.h ****         Writes data in buffer to to the QSPI. Starting at address to address+size 
 127:../../../libDaisy/src/per/qspi.h ****         \param address Address to write to
 128:../../../libDaisy/src/per/qspi.h ****         \param size Buffer size
 129:../../../libDaisy/src/per/qspi.h ****         \param buffer Buffer to write
 130:../../../libDaisy/src/per/qspi.h ****         \return Result::OK or Result::ERR
 131:../../../libDaisy/src/per/qspi.h ****         */
 132:../../../libDaisy/src/per/qspi.h ****     Result Write(uint32_t address, uint32_t size, uint8_t* buffer);
 133:../../../libDaisy/src/per/qspi.h **** 
 134:../../../libDaisy/src/per/qspi.h ****     /** 
 135:../../../libDaisy/src/per/qspi.h ****         Erases the area specified on the chip.
 136:../../../libDaisy/src/per/qspi.h ****         Erasures will happen by 4K, 32K or 64K increments.
 137:../../../libDaisy/src/per/qspi.h ****         Smallest erase possible is 4kB at a time. (on IS25LP*)
 138:../../../libDaisy/src/per/qspi.h ****         \param start_addr Address to begin erasing from
 139:../../../libDaisy/src/per/qspi.h ****         \param end_addr  Address to stop erasing at
 140:../../../libDaisy/src/per/qspi.h ****         \return Result::OK or Result::ERR
 141:../../../libDaisy/src/per/qspi.h ****         */
 142:../../../libDaisy/src/per/qspi.h ****     Result Erase(uint32_t start_addr, uint32_t end_addr);
ARM GAS  /var/folders/yw/6_x9gyn52jjg4jtn_wsryx_80000gp/T//ccNVG2zx.s 			page 36


 143:../../../libDaisy/src/per/qspi.h **** 
 144:../../../libDaisy/src/per/qspi.h ****     /**  
 145:../../../libDaisy/src/per/qspi.h ****          Erases a single sector of the chip.  
 146:../../../libDaisy/src/per/qspi.h ****         TODO: Document the size of this function. 
 147:../../../libDaisy/src/per/qspi.h ****         \param address Address of sector to erase
 148:../../../libDaisy/src/per/qspi.h ****         \return Result::OK or Result::ERR
 149:../../../libDaisy/src/per/qspi.h ****         */
 150:../../../libDaisy/src/per/qspi.h ****     Result EraseSector(uint32_t address);
 151:../../../libDaisy/src/per/qspi.h **** 
 152:../../../libDaisy/src/per/qspi.h ****     /** Returns the current class status. Useful for debugging.
 153:../../../libDaisy/src/per/qspi.h ****      *  \returns Status
 154:../../../libDaisy/src/per/qspi.h ****      */
 155:../../../libDaisy/src/per/qspi.h ****     Status GetStatus();
 156:../../../libDaisy/src/per/qspi.h **** 
 157:../../../libDaisy/src/per/qspi.h ****     /** Returns a pointer to the actual memory used 
 158:../../../libDaisy/src/per/qspi.h ****      *  The memory at this address is read-only
 159:../../../libDaisy/src/per/qspi.h ****      *  to write to it use the Write function.
 160:../../../libDaisy/src/per/qspi.h ****      * 
 161:../../../libDaisy/src/per/qspi.h ****      *  \param offset returns the pointer starting this 
 162:../../../libDaisy/src/per/qspi.h ****      *                many bytes into the memory
 163:../../../libDaisy/src/per/qspi.h ****     */
 164:../../../libDaisy/src/per/qspi.h ****     void* GetData(uint32_t offset = 0);
 165:../../../libDaisy/src/per/qspi.h **** 
 166:../../../libDaisy/src/per/qspi.h ****     QSPIHandle() : pimpl_(nullptr) {}
 835              		.loc 11 166 5 view .LVU246
 836              	.LBE203:
 837              	.LBE202:
 838              	.LBE201:
 839              	.LBE200:
 840              	.LBE199:
 841              		.loc 9 116 2 is_stmt 0 view .LVU247
 842 0000 10B5     		push	{r4, lr}
 843              		.cfi_def_cfa_offset 8
 844              		.cfi_offset 4, -8
 845              		.cfi_offset 14, -4
 846              	.LBB236:
 847              	.LBB234:
 848              	.LBB221:
 849              	.LBB219:
 850              	.LBB208:
 851              	.LBB204:
 852              	.LBB205:
 853              		.loc 11 166 34 view .LVU248
 854 0002 1348     		ldr	r0, .L29
 855 0004 0024     		movs	r4, #0
 856              	.LBE205:
 857              	.LBE204:
 858              	.LBE208:
 859              	.LBE219:
 860              	.LBE221:
  26:adsrWithPots.cpp **** static Adsr       env;
 861              		.loc 9 26 19 view .LVU249
 862 0006 134A     		ldr	r2, .L29+4
 863 0008 1349     		ldr	r1, .L29+8
 864              	.LBB222:
 865              	.LBB220:
 866              	.LBB209:
ARM GAS  /var/folders/yw/6_x9gyn52jjg4jtn_wsryx_80000gp/T//ccNVG2zx.s 			page 37


 867              	.LBB207:
 868              	.LBB206:
 869              		.loc 11 166 34 view .LVU250
 870 000a 0460     		str	r4, [r0]
 871              	.LVL57:
 872              		.loc 11 166 34 view .LVU251
 873              	.LBE206:
 874              	.LBE207:
 875              	.LBE209:
 876              	.LBB210:
 877              	.LBI210:
  95:../../../libDaisy/src/hid/audio.h ****     ~AudioHandle() {}
 878              		.loc 8 95 5 is_stmt 1 view .LVU252
 879              	.LBB211:
 880              	.LBB212:
  95:../../../libDaisy/src/hid/audio.h ****     ~AudioHandle() {}
 881              		.loc 8 95 35 is_stmt 0 view .LVU253
 882 000c 4461     		str	r4, [r0, #20]
 883              	.LVL58:
  95:../../../libDaisy/src/hid/audio.h ****     ~AudioHandle() {}
 884              		.loc 8 95 35 view .LVU254
 885              	.LBE212:
 886              	.LBE211:
 887              	.LBE210:
 888              	.LBB213:
 889              	.LBI213:
  92:../../../libDaisy/src/per/adc.h ****     ~AdcHandle() {}
 890              		.loc 7 92 5 is_stmt 1 view .LVU255
  92:../../../libDaisy/src/per/adc.h ****     ~AdcHandle() {}
 891              		.loc 7 92 5 is_stmt 0 view .LVU256
 892              	.LBE213:
 893              	.LBB214:
 894              	.LBI214:
 895              		.file 12 "../../../libDaisy/src/per/dac.h"
   1:../../../libDaisy/src/per/dac.h **** #pragma once
   2:../../../libDaisy/src/per/dac.h **** #ifndef DSY_DAC_H
   3:../../../libDaisy/src/per/dac.h **** #define DSY_DAC_H
   4:../../../libDaisy/src/per/dac.h **** 
   5:../../../libDaisy/src/per/dac.h **** #include "daisy_core.h"
   6:../../../libDaisy/src/per/dac.h **** 
   7:../../../libDaisy/src/per/dac.h **** namespace daisy
   8:../../../libDaisy/src/per/dac.h **** {
   9:../../../libDaisy/src/per/dac.h **** /** @brief DAC handle for Built-in DAC Peripheral 
  10:../../../libDaisy/src/per/dac.h ****  *  @ingroup per_analog
  11:../../../libDaisy/src/per/dac.h ****  ** 
  12:../../../libDaisy/src/per/dac.h ****  ** For now only Normal Mode is supported,
  13:../../../libDaisy/src/per/dac.h ****  ** Sample and hold mode provides reduced power consumption, but requires a bit more setup.
  14:../../../libDaisy/src/per/dac.h ****  **
  15:../../../libDaisy/src/per/dac.h ****  ** For now connecting the DAC through other internal peripherals is also not supported.
  16:../../../libDaisy/src/per/dac.h ****  **
  17:../../../libDaisy/src/per/dac.h ****  ** Since the DAC channels have dedicated pins we don't need to pass in a pin config like with
  18:../../../libDaisy/src/per/dac.h ****  ** other modules. However, it is still important to not try to use the DAC pins for anything else.
  19:../../../libDaisy/src/per/dac.h ****  ** DAC Channel 1 is on PA4, and DAC Channel 2 is on PA5
  20:../../../libDaisy/src/per/dac.h ****  ***/
  21:../../../libDaisy/src/per/dac.h **** class DacHandle
  22:../../../libDaisy/src/per/dac.h **** {
  23:../../../libDaisy/src/per/dac.h ****   public:
ARM GAS  /var/folders/yw/6_x9gyn52jjg4jtn_wsryx_80000gp/T//ccNVG2zx.s 			page 38


  24:../../../libDaisy/src/per/dac.h ****     /** Return Values for the DacHandle class */
  25:../../../libDaisy/src/per/dac.h ****     enum class Result
  26:../../../libDaisy/src/per/dac.h ****     {
  27:../../../libDaisy/src/per/dac.h ****         OK,
  28:../../../libDaisy/src/per/dac.h ****         ERR,
  29:../../../libDaisy/src/per/dac.h ****     };
  30:../../../libDaisy/src/per/dac.h **** 
  31:../../../libDaisy/src/per/dac.h ****     /** Selects which channel(s) will be configured for use. */
  32:../../../libDaisy/src/per/dac.h ****     enum class Channel
  33:../../../libDaisy/src/per/dac.h ****     {
  34:../../../libDaisy/src/per/dac.h ****         ONE,
  35:../../../libDaisy/src/per/dac.h ****         TWO,
  36:../../../libDaisy/src/per/dac.h ****         BOTH,
  37:../../../libDaisy/src/per/dac.h ****     };
  38:../../../libDaisy/src/per/dac.h **** 
  39:../../../libDaisy/src/per/dac.h ****     /** Sets the Mode for the DAC channels.
  40:../../../libDaisy/src/per/dac.h ****      **
  41:../../../libDaisy/src/per/dac.h ****      ** Polling mode uses the blocking mode to transmit a single value at a time.
  42:../../../libDaisy/src/per/dac.h ****      **
  43:../../../libDaisy/src/per/dac.h ****      ** DMA mode uses a buffer, and periodically transmits it triggering a 
  44:../../../libDaisy/src/per/dac.h ****      ** callback to fill the buffer when it is ready for more samples.
  45:../../../libDaisy/src/per/dac.h ****      ***/
  46:../../../libDaisy/src/per/dac.h ****     enum class Mode
  47:../../../libDaisy/src/per/dac.h ****     {
  48:../../../libDaisy/src/per/dac.h ****         POLLING,
  49:../../../libDaisy/src/per/dac.h ****         DMA,
  50:../../../libDaisy/src/per/dac.h ****     };
  51:../../../libDaisy/src/per/dac.h **** 
  52:../../../libDaisy/src/per/dac.h ****     /** Sets the number of bits per sample transmitted out of the DAC.
  53:../../../libDaisy/src/per/dac.h ****      ** The output range will be: 0V - VDDA
  54:../../../libDaisy/src/per/dac.h ****      ** The resolution will be roughly: bitdepth / (VDDA - 0V) 
  55:../../../libDaisy/src/per/dac.h ****      ***/
  56:../../../libDaisy/src/per/dac.h ****     enum class BitDepth
  57:../../../libDaisy/src/per/dac.h ****     {
  58:../../../libDaisy/src/per/dac.h ****         BITS_8,
  59:../../../libDaisy/src/per/dac.h ****         BITS_12
  60:../../../libDaisy/src/per/dac.h ****     };
  61:../../../libDaisy/src/per/dac.h **** 
  62:../../../libDaisy/src/per/dac.h ****     /** Sets whether the DAC output is buffered for higher drive ability. */
  63:../../../libDaisy/src/per/dac.h ****     enum class BufferState
  64:../../../libDaisy/src/per/dac.h ****     {
  65:../../../libDaisy/src/per/dac.h ****         ENABLED,
  66:../../../libDaisy/src/per/dac.h ****         DISABLED,
  67:../../../libDaisy/src/per/dac.h ****     };
  68:../../../libDaisy/src/per/dac.h **** 
  69:../../../libDaisy/src/per/dac.h ****     /** Configuration structure for initializing the DAC structure. */
  70:../../../libDaisy/src/per/dac.h ****     struct Config
  71:../../../libDaisy/src/per/dac.h ****     {
  72:../../../libDaisy/src/per/dac.h ****         /** Target Samplerate in Hz used to configure the internal 
  73:../../../libDaisy/src/per/dac.h ****          ** timebase for DMA mode. Does nothing in POLLING mode.
  74:../../../libDaisy/src/per/dac.h ****          ** If the value is 0 at Init time this will default to 48000Hz 
  75:../../../libDaisy/src/per/dac.h ****          ** otherwise the driver will attempt meet the target.*/
  76:../../../libDaisy/src/per/dac.h ****         uint32_t target_samplerate;
  77:../../../libDaisy/src/per/dac.h **** 
  78:../../../libDaisy/src/per/dac.h ****         Channel     chn;
  79:../../../libDaisy/src/per/dac.h ****         Mode        mode;
  80:../../../libDaisy/src/per/dac.h ****         BitDepth    bitdepth;
ARM GAS  /var/folders/yw/6_x9gyn52jjg4jtn_wsryx_80000gp/T//ccNVG2zx.s 			page 39


  81:../../../libDaisy/src/per/dac.h ****         BufferState buff_state;
  82:../../../libDaisy/src/per/dac.h ****     };
  83:../../../libDaisy/src/per/dac.h **** 
  84:../../../libDaisy/src/per/dac.h ****     DacHandle() : pimpl_(nullptr) {}
 896              		.loc 12 84 5 is_stmt 1 view .LVU257
 897              	.LBB215:
 898              	.LBB216:
 899              		.loc 12 84 33 is_stmt 0 view .LVU258
 900 000e 0462     		str	r4, [r0, #32]
 901              	.LVL59:
 902              		.loc 12 84 33 view .LVU259
 903              	.LBE216:
 904              	.LBE215:
 905              	.LBE214:
 906              	.LBB217:
 907              	.LBI217:
  40:../../../libDaisy/src/hid/usb.h **** 
 908              		.loc 6 40 5 is_stmt 1 view .LVU260
  40:../../../libDaisy/src/hid/usb.h **** 
 909              		.loc 6 40 5 is_stmt 0 view .LVU261
 910              	.LBE217:
 911              	.LBB218:
 912              	.LBI218:
  77:../../../libDaisy/src/sys/system.h ****     ~System() {}
 913              		.loc 5 77 5 is_stmt 1 view .LVU262
  77:../../../libDaisy/src/sys/system.h ****     ~System() {}
 914              		.loc 5 77 5 is_stmt 0 view .LVU263
 915              	.LBE218:
 916              	.LBE220:
 917              	.LBE222:
  26:adsrWithPots.cpp **** static Adsr       env;
 918              		.loc 9 26 19 view .LVU264
 919 0010 FFF7FEFF 		bl	__aeabi_atexit
 920              	.LVL60:
 921              	.LBB223:
 922              	.LBI223:
  36:../../../DaisySP/Source/Control/adsr.h ****     ~Adsr() {}
 923              		.loc 1 36 5 is_stmt 1 view .LVU265
 924              	.LBB224:
 925              	.LBB225:
  36:../../../DaisySP/Source/Control/adsr.h ****     ~Adsr() {}
 926              		.loc 1 36 12 is_stmt 0 view .LVU266
 927 0014 1148     		ldr	r0, .L29+12
 928 0016 0023     		movs	r3, #0
 929 0018 1149     		ldr	r1, .L29+16
 930              	.LBE225:
 931              	.LBE224:
 932              	.LBE223:
  27:adsrWithPots.cpp **** static Oscillator osc;
 933              		.loc 9 27 19 view .LVU267
 934 001a 0E4A     		ldr	r2, .L29+4
 935              	.LBB230:
 936              	.LBB228:
  36:../../../DaisySP/Source/Control/adsr.h ****     ~Adsr() {}
 937              		.loc 1 36 12 view .LVU268
 938 001c 8485     		strh	r4, [r0, #44]	@ movhi
 939              	.LVL61:
ARM GAS  /var/folders/yw/6_x9gyn52jjg4jtn_wsryx_80000gp/T//ccNVG2zx.s 			page 40


 940              	.LBB226:
  36:../../../DaisySP/Source/Control/adsr.h ****     ~Adsr() {}
 941              		.loc 1 36 12 view .LVU269
 942 001e 0360     		str	r3, [r0]	@ float
 943 0020 4360     		str	r3, [r0, #4]	@ float
 944 0022 8160     		str	r1, [r0, #8]	@ float
 945 0024 C360     		str	r3, [r0, #12]	@ float
 946 0026 0161     		str	r1, [r0, #16]	@ float
 947 0028 4161     		str	r1, [r0, #20]	@ float
 948 002a 8161     		str	r1, [r0, #24]	@ float
 949 002c C361     		str	r3, [r0, #28]	@ float
 950              	.LBE226:
 951              	.LBE228:
 952              	.LBE230:
  27:adsrWithPots.cpp **** static Oscillator osc;
 953              		.loc 9 27 19 view .LVU270
 954 002e 0D49     		ldr	r1, .L29+20
 955              	.LBB231:
 956              	.LBB229:
 957              	.LBB227:
  36:../../../DaisySP/Source/Control/adsr.h ****     ~Adsr() {}
 958              		.loc 1 36 12 view .LVU271
 959 0030 0362     		str	r3, [r0, #32]	@ float
 960 0032 4362     		str	r3, [r0, #36]	@ float
 961              	.LBE227:
 962              	.LBE229:
 963              	.LBE231:
  27:adsrWithPots.cpp **** static Oscillator osc;
 964              		.loc 9 27 19 view .LVU272
 965 0034 FFF7FEFF 		bl	__aeabi_atexit
 966              	.LVL62:
 967              	.LBB232:
 968              	.LBI232:
  15:../../../DaisySP/Source/Synthesis/oscillator.h ****     ~Oscillator() {}
 969              		.loc 2 15 5 is_stmt 1 view .LVU273
  15:../../../DaisySP/Source/Synthesis/oscillator.h ****     ~Oscillator() {}
 970              		.loc 2 15 5 is_stmt 0 view .LVU274
 971              	.LBE232:
  28:adsrWithPots.cpp **** static Metro      tick;
 972              		.loc 9 28 19 view .LVU275
 973 0038 064A     		ldr	r2, .L29+4
 974 003a 0B49     		ldr	r1, .L29+24
 975 003c 0B48     		ldr	r0, .L29+28
 976 003e FFF7FEFF 		bl	__aeabi_atexit
 977              	.LVL63:
 978              	.LBB233:
 979              	.LBI233:
  14:../../../DaisySP/Source/Utility/metro.h ****     ~Metro() {}
 980              		.loc 3 14 5 is_stmt 1 view .LVU276
  14:../../../DaisySP/Source/Utility/metro.h ****     ~Metro() {}
 981              		.loc 3 14 5 is_stmt 0 view .LVU277
 982              	.LBE233:
  29:adsrWithPots.cpp **** bool              gate;
 983              		.loc 9 29 19 view .LVU278
 984 0042 044A     		ldr	r2, .L29+4
 985 0044 0A49     		ldr	r1, .L29+32
 986 0046 0B48     		ldr	r0, .L29+36
ARM GAS  /var/folders/yw/6_x9gyn52jjg4jtn_wsryx_80000gp/T//ccNVG2zx.s 			page 41


 987              	.LBE234:
 988              	.LBE236:
 989              		.loc 9 116 2 view .LVU279
 990 0048 BDE81040 		pop	{r4, lr}
 991              		.cfi_restore 14
 992              		.cfi_restore 4
 993              		.cfi_def_cfa_offset 0
 994              	.LBB237:
 995              	.LBB235:
  29:adsrWithPots.cpp **** bool              gate;
 996              		.loc 9 29 19 view .LVU280
 997 004c FFF7FEBF 		b	__aeabi_atexit
 998              	.LVL64:
 999              	.L30:
 1000              		.align	2
 1001              	.L29:
 1002 0050 00000000 		.word	.LANCHOR0
 1003 0054 00000000 		.word	__dso_handle
 1004 0058 00000000 		.word	_ZN5daisy9DaisySeedD1Ev
 1005 005c 00000000 		.word	.LANCHOR1
 1006 0060 000080BF 		.word	-1082130432
 1007 0064 00000000 		.word	_ZN7daisysp4AdsrD1Ev
 1008 0068 00000000 		.word	_ZN7daisysp10OscillatorD1Ev
 1009 006c 00000000 		.word	.LANCHOR2
 1010 0070 00000000 		.word	_ZN7daisysp5MetroD1Ev
 1011 0074 00000000 		.word	.LANCHOR3
 1012              	.LBE235:
 1013              	.LBE237:
 1014              		.cfi_endproc
 1015              	.LFE5351:
 1017              		.section	.init_array,"aw",%init_array
 1018              		.align	2
 1019 0000 00000000 		.word	_GLOBAL__sub_I_adsrValues(target1)
 1020              		.global	gate
 1021              		.global	adsrValues
 1022              		.section	.bss._ZL2hw,"aw",%nobits
 1023              		.align	2
 1024              		.set	.LANCHOR0,. + 0
 1027              	_ZL2hw:
 1028 0000 00000000 		.space	60
 1028      00000000 
 1028      00000000 
 1028      00000000 
 1028      00000000 
 1029              		.section	.bss._ZL3env,"aw",%nobits
 1030              		.align	2
 1031              		.set	.LANCHOR1,. + 0
 1034              	_ZL3env:
 1035 0000 00000000 		.space	48
 1035      00000000 
 1035      00000000 
 1035      00000000 
 1035      00000000 
 1036              		.section	.bss._ZL3osc,"aw",%nobits
 1037              		.align	2
 1038              		.set	.LANCHOR2,. + 0
 1041              	_ZL3osc:
ARM GAS  /var/folders/yw/6_x9gyn52jjg4jtn_wsryx_80000gp/T//ccNVG2zx.s 			page 42


 1042 0000 00000000 		.space	48
 1042      00000000 
 1042      00000000 
 1042      00000000 
 1042      00000000 
 1043              		.section	.bss._ZL4tick,"aw",%nobits
 1044              		.align	2
 1045              		.set	.LANCHOR3,. + 0
 1048              	_ZL4tick:
 1049 0000 00000000 		.space	16
 1049      00000000 
 1049      00000000 
 1049      00000000 
 1050              		.section	.bss.adsrValues,"aw",%nobits
 1051              		.align	2
 1052              		.set	.LANCHOR4,. + 0
 1055              	adsrValues:
 1056 0000 00000000 		.space	16
 1056      00000000 
 1056      00000000 
 1056      00000000 
 1057              		.section	.bss.gate,"aw",%nobits
 1058              		.set	.LANCHOR5,. + 0
 1061              	gate:
 1062 0000 00       		.space	1
 1063              		.text
 1064              	.Letext0:
 1065              		.file 13 "/Library/DaisyToolchain/0.2.0/arm/arm-none-eabi/include/machine/_default_types.h"
 1066              		.file 14 "/Library/DaisyToolchain/0.2.0/arm/arm-none-eabi/include/sys/_stdint.h"
 1067              		.file 15 "/Library/DaisyToolchain/0.2.0/arm/arm-none-eabi/include/stdint.h"
 1068              		.file 16 "/Library/DaisyToolchain/0.2.0/arm/lib/gcc/arm-none-eabi/10.3.1/include/stddef.h"
 1069              		.file 17 "/Library/DaisyToolchain/0.2.0/arm/arm-none-eabi/include/c++/10.3.1/cmath"
 1070              		.file 18 "/Library/DaisyToolchain/0.2.0/arm/arm-none-eabi/include/c++/10.3.1/bits/std_abs.h"
 1071              		.file 19 "/Library/DaisyToolchain/0.2.0/arm/arm-none-eabi/include/c++/10.3.1/cstdint"
 1072              		.file 20 "/Library/DaisyToolchain/0.2.0/arm/arm-none-eabi/include/c++/10.3.1/cstdlib"
 1073              		.file 21 "/Library/DaisyToolchain/0.2.0/arm/arm-none-eabi/include/c++/10.3.1/type_traits"
 1074              		.file 22 "/Library/DaisyToolchain/0.2.0/arm/arm-none-eabi/include/c++/10.3.1/debug/debug.h"
 1075              		.file 23 "/Library/DaisyToolchain/0.2.0/arm/arm-none-eabi/include/c++/10.3.1/cwchar"
 1076              		.file 24 "/Library/DaisyToolchain/0.2.0/arm/arm-none-eabi/include/c++/10.3.1/bits/stl_pair.h"
 1077              		.file 25 "/Library/DaisyToolchain/0.2.0/arm/arm-none-eabi/include/c++/10.3.1/bits/exception_ptr.h"
 1078              		.file 26 "/Library/DaisyToolchain/0.2.0/arm/arm-none-eabi/include/c++/10.3.1/arm-none-eabi/thumb/v
 1079              		.file 27 "/Library/DaisyToolchain/0.2.0/arm/arm-none-eabi/include/c++/10.3.1/clocale"
 1080              		.file 28 "/Library/DaisyToolchain/0.2.0/arm/arm-none-eabi/include/c++/10.3.1/cstdio"
 1081              		.file 29 "/Library/DaisyToolchain/0.2.0/arm/arm-none-eabi/include/c++/10.3.1/bits/basic_string.h"
 1082              		.file 30 "/Library/DaisyToolchain/0.2.0/arm/arm-none-eabi/include/c++/10.3.1/bits/stl_iterator.h"
 1083              		.file 31 "/Library/DaisyToolchain/0.2.0/arm/arm-none-eabi/include/c++/10.3.1/cstring"
 1084              		.file 32 "/Library/DaisyToolchain/0.2.0/arm/arm-none-eabi/include/c++/10.3.1/bits/algorithmfwd.h"
 1085              		.file 33 "/Library/DaisyToolchain/0.2.0/arm/arm-none-eabi/include/c++/10.3.1/cstdarg"
 1086              		.file 34 "/Library/DaisyToolchain/0.2.0/arm/arm-none-eabi/include/c++/10.3.1/bits/predefined_ops.h
 1087              		.file 35 "/Library/DaisyToolchain/0.2.0/arm/arm-none-eabi/include/sys/_types.h"
 1088              		.file 36 "/Library/DaisyToolchain/0.2.0/arm/arm-none-eabi/include/sys/reent.h"
 1089              		.file 37 "/Library/DaisyToolchain/0.2.0/arm/arm-none-eabi/include/sys/lock.h"
 1090              		.file 38 "/Library/DaisyToolchain/0.2.0/arm/arm-none-eabi/include/math.h"
 1091              		.file 39 "/Library/DaisyToolchain/0.2.0/arm/arm-none-eabi/include/stdlib.h"
 1092              		.file 40 "/Library/DaisyToolchain/0.2.0/arm/arm-none-eabi/include/c++/10.3.1/math.h"
 1093              		.file 41 "../../../DaisySP/Source/Control/adenv.h"
 1094              		.file 42 "../../../DaisySP/Source/Utility/dsp.h"
ARM GAS  /var/folders/yw/6_x9gyn52jjg4jtn_wsryx_80000gp/T//ccNVG2zx.s 			page 43


 1095              		.file 43 "/Library/DaisyToolchain/0.2.0/arm/lib/gcc/arm-none-eabi/10.3.1/include/stdarg.h"
 1096              		.file 44 "/Library/DaisyToolchain/0.2.0/arm/arm-none-eabi/include/wchar.h"
 1097              		.file 45 "/Library/DaisyToolchain/0.2.0/arm/arm-none-eabi/include/locale.h"
 1098              		.file 46 "/Library/DaisyToolchain/0.2.0/arm/arm-none-eabi/include/stdio.h"
 1099              		.file 47 "/Library/DaisyToolchain/0.2.0/arm/arm-none-eabi/include/c++/10.3.1/stdlib.h"
 1100              		.file 48 "/Library/DaisyToolchain/0.2.0/arm/arm-none-eabi/include/string.h"
 1101              		.file 49 "../../../libDaisy/src/per/tim.h"
 1102              		.file 50 "../../../libDaisy/src/per/sai.h"
 1103              		.file 51 "../../../libDaisy/src/util/wav_format.h"
 1104              		.file 52 "../../../libDaisy/src/dev/max11300.h"
 1105              		.file 53 "../../../libDaisy/src/per/gpio.h"
 1106              		.file 54 "../../../libDaisy/src/dev/sdram.h"
 1107              		.file 55 "../../../libDaisy/src/dev/sr_595.h"
 1108              		.file 56 "<built-in>"
ARM GAS  /var/folders/yw/6_x9gyn52jjg4jtn_wsryx_80000gp/T//ccNVG2zx.s 			page 44

